
TR5_FMC_HDMI.elf:     file format elf32-littlenios2
TR5_FMC_HDMI.elf
architecture: nios2:r1, flags 0x00000112:
EXEC_P, HAS_SYMS, D_PAGED
start address 0x00040244

Program Header:
    LOAD off    0x00001000 vaddr 0x00040000 paddr 0x00040000 align 2**12
         filesz 0x00000020 memsz 0x00000020 flags r-x
    LOAD off    0x00001020 vaddr 0x00040020 paddr 0x00040020 align 2**12
         filesz 0x00015f00 memsz 0x00015f00 flags r-x
    LOAD off    0x00016f20 vaddr 0x00055f20 paddr 0x00057adc align 2**12
         filesz 0x00001bbc memsz 0x00001bbc flags rw-
    LOAD off    0x00019698 vaddr 0x00059698 paddr 0x00059698 align 2**12
         filesz 0x00000000 memsz 0x00000160 flags rw-

Sections:
Idx Name          Size      VMA       LMA       File off  Algn
  0 .entry        00000020  00040000  00040000  00001000  2**5
                  CONTENTS, ALLOC, LOAD, READONLY, CODE
  1 .exceptions   00000224  00040020  00040020  00001020  2**2
                  CONTENTS, ALLOC, LOAD, READONLY, CODE
  2 .text         00015300  00040244  00040244  00001244  2**2
                  CONTENTS, ALLOC, LOAD, READONLY, CODE
  3 .rodata       000009dc  00055544  00055544  00016544  2**2
                  CONTENTS, ALLOC, LOAD, READONLY, DATA
  4 .rwdata       00001bbc  00055f20  00057adc  00016f20  2**2
                  CONTENTS, ALLOC, LOAD, DATA, SMALL_DATA
  5 .bss          00000160  00059698  00059698  00019698  2**2
                  ALLOC, SMALL_DATA
  6 .onchip_memory2 00000000  000597f8  000597f8  00018adc  2**0
                  CONTENTS
  7 .comment      00000023  00000000  00000000  00018adc  2**0
                  CONTENTS, READONLY
  8 .debug_aranges 00001090  00000000  00000000  00018b00  2**3
                  CONTENTS, READONLY, DEBUGGING
  9 .debug_info   000286b0  00000000  00000000  00019b90  2**0
                  CONTENTS, READONLY, DEBUGGING
 10 .debug_abbrev 0000a53c  00000000  00000000  00042240  2**0
                  CONTENTS, READONLY, DEBUGGING
 11 .debug_line   0000da96  00000000  00000000  0004c77c  2**0
                  CONTENTS, READONLY, DEBUGGING
 12 .debug_frame  0000291c  00000000  00000000  0005a214  2**2
                  CONTENTS, READONLY, DEBUGGING
 13 .debug_str    00004058  00000000  00000000  0005cb30  2**0
                  CONTENTS, READONLY, DEBUGGING
 14 .debug_loc    0001d0f8  00000000  00000000  00060b88  2**0
                  CONTENTS, READONLY, DEBUGGING
 15 .debug_alt_sim_info 00000060  00000000  00000000  0007dc80  2**2
                  CONTENTS, READONLY, DEBUGGING
 16 .debug_ranges 00001b90  00000000  00000000  0007dce0  2**3
                  CONTENTS, READONLY, DEBUGGING
 17 .thread_model 00000003  00000000  00000000  0008322e  2**0
                  CONTENTS, READONLY
 18 .cpu          0000000c  00000000  00000000  00083231  2**0
                  CONTENTS, READONLY
 19 .qsys         00000001  00000000  00000000  0008323d  2**0
                  CONTENTS, READONLY
 20 .simulation_enabled 00000001  00000000  00000000  0008323e  2**0
                  CONTENTS, READONLY
 21 .stderr_dev   00000009  00000000  00000000  0008323f  2**0
                  CONTENTS, READONLY
 22 .stdin_dev    00000009  00000000  00000000  00083248  2**0
                  CONTENTS, READONLY
 23 .stdout_dev   00000009  00000000  00000000  00083251  2**0
                  CONTENTS, READONLY
 24 .thread_model 00000003  00000000  00000000  0008325a  2**0
                  CONTENTS, READONLY
 25 .cpu          0000000c  00000000  00000000  0008325d  2**0
                  CONTENTS, READONLY
 26 .qsys         00000001  00000000  00000000  00083269  2**0
                  CONTENTS, READONLY
 27 .simulation_enabled 00000001  00000000  00000000  0008326a  2**0
                  CONTENTS, READONLY
 28 .stderr_dev   00000009  00000000  00000000  0008326b  2**0
                  CONTENTS, READONLY
 29 .stdin_dev    00000009  00000000  00000000  00083274  2**0
                  CONTENTS, READONLY
 30 .stdout_dev   00000009  00000000  00000000  0008327d  2**0
                  CONTENTS, READONLY
 31 .sopc_system_name 00000008  00000000  00000000  00083286  2**0
                  CONTENTS, READONLY
 32 .quartus_project_dir 00000024  00000000  00000000  0008328e  2**0
                  CONTENTS, READONLY
 33 .jdi          00004010  00000000  00000000  000832b2  2**0
                  CONTENTS, READONLY
 34 .sopcinfo     000970a9  00000000  00000000  000872c2  2**0
                  CONTENTS, READONLY
SYMBOL TABLE:
00040000 l    d  .entry	00000000 .entry
00040020 l    d  .exceptions	00000000 .exceptions
00040244 l    d  .text	00000000 .text
00055544 l    d  .rodata	00000000 .rodata
00055f20 l    d  .rwdata	00000000 .rwdata
00059698 l    d  .bss	00000000 .bss
000597f8 l    d  .onchip_memory2	00000000 .onchip_memory2
00000000 l    d  .comment	00000000 .comment
00000000 l    d  .debug_aranges	00000000 .debug_aranges
00000000 l    d  .debug_info	00000000 .debug_info
00000000 l    d  .debug_abbrev	00000000 .debug_abbrev
00000000 l    d  .debug_line	00000000 .debug_line
00000000 l    d  .debug_frame	00000000 .debug_frame
00000000 l    d  .debug_str	00000000 .debug_str
00000000 l    d  .debug_loc	00000000 .debug_loc
00000000 l    d  .debug_alt_sim_info	00000000 .debug_alt_sim_info
00000000 l    d  .debug_ranges	00000000 .debug_ranges
00000000 l    df *ABS*	00000000 ../TR5_FMC_HDMI_bsp//obj/HAL/src/crt0.o
0004028c l       .text	00000000 alt_after_alt_main
00000000 l    df *ABS*	00000000 alt_irq_handler.c
00000000 l    df *ABS*	00000000 alt_instruction_exception_entry.c
00000000 l    df *ABS*	00000000 HDMI_RX.c
000407f4 l     F .text	0000006c hdmi_isr
00000000 l    df *ABS*	00000000 HDMI_TX.c
00000000 l    df *ABS*	00000000 main.c
00000000 l    df *ABS*	00000000 I2C.c
00000000 l    df *ABS*	00000000 debug.c
00000000 l    df *ABS*	00000000 floatsisf.c
00000000 l    df *ABS*	00000000 floatunsisf.c
00000000 l    df *ABS*	00000000 adddf3.c
00000000 l    df *ABS*	00000000 divdf3.c
00000000 l    df *ABS*	00000000 extendsfdf2.c
00000000 l    df *ABS*	00000000 truncdfsf2.c
00000000 l    df *ABS*	00000000 libgcc2.c
00000000 l    df *ABS*	00000000 lib2-divmod.c
00000000 l    df *ABS*	00000000 libgcc2.c
00000000 l    df *ABS*	00000000 printf.c
00000000 l    df *ABS*	00000000 puts.c
00000000 l    df *ABS*	00000000 sprintf.c
00000000 l    df *ABS*	00000000 strlen.c
00000000 l    df *ABS*	00000000 vfprintf.c
00055d2e l     O .rodata	00000010 zeroes.4389
00055d3e l     O .rodata	00000010 blanks.4388
00000000 l    df *ABS*	00000000 vfprintf.c
00055d4e l     O .rodata	00000010 zeroes.4404
00048558 l     F .text	000000bc __sbprintf
00055d5e l     O .rodata	00000010 blanks.4403
00000000 l    df *ABS*	00000000 vsnprintf.c
00000000 l    df *ABS*	00000000 wsetup.c
00000000 l    df *ABS*	00000000 dtoa.c
0004888c l     F .text	00000200 quorem
00000000 l    df *ABS*	00000000 fflush.c
00000000 l    df *ABS*	00000000 findfp.c
0004a3bc l     F .text	00000008 __fp_unlock
0004a3d0 l     F .text	0000019c __sinit.part.1
0004a56c l     F .text	00000008 __fp_lock
00000000 l    df *ABS*	00000000 mallocr.c
00000000 l    df *ABS*	00000000 fvwrite.c
00000000 l    df *ABS*	00000000 fwalk.c
00000000 l    df *ABS*	00000000 impure.c
00055ff0 l     O .rwdata	00000424 impure_data
00000000 l    df *ABS*	00000000 locale.c
00056434 l     O .rwdata	00000020 lc_ctype_charset
00056414 l     O .rwdata	00000020 lc_message_charset
00056454 l     O .rwdata	00000038 lconv
00000000 l    df *ABS*	00000000 makebuf.c
00000000 l    df *ABS*	00000000 mallocr.c
00000000 l    df *ABS*	00000000 memchr.c
00000000 l    df *ABS*	00000000 memcpy.c
00000000 l    df *ABS*	00000000 memmove.c
00000000 l    df *ABS*	00000000 memset.c
00000000 l    df *ABS*	00000000 mprec.c
00055d90 l     O .rodata	0000000c p05.2768
00000000 l    df *ABS*	00000000 mallocr.c
00000000 l    df *ABS*	00000000 s_fpclassify.c
00000000 l    df *ABS*	00000000 sbrkr.c
00000000 l    df *ABS*	00000000 stdio.c
00000000 l    df *ABS*	00000000 strcmp.c
00000000 l    df *ABS*	00000000 vfprintf.c
00055ec4 l     O .rodata	00000010 blanks.4332
00055eb4 l     O .rodata	00000010 zeroes.4333
00000000 l    df *ABS*	00000000 vfprintf.c
0004ed74 l     F .text	000000fc __sprint_r.part.0
00055ee4 l     O .rodata	00000010 blanks.4348
00055ed4 l     O .rodata	00000010 zeroes.4349
00050300 l     F .text	000000bc __sbprintf
00000000 l    df *ABS*	00000000 writer.c
00000000 l    df *ABS*	00000000 closer.c
00000000 l    df *ABS*	00000000 mallocr.c
00000000 l    df *ABS*	00000000 fclose.c
00000000 l    df *ABS*	00000000 fputwc.c
00000000 l    df *ABS*	00000000 fstatr.c
00000000 l    df *ABS*	00000000 int_errno.c
00000000 l    df *ABS*	00000000 isattyr.c
00000000 l    df *ABS*	00000000 lseekr.c
00000000 l    df *ABS*	00000000 readr.c
00000000 l    df *ABS*	00000000 wbuf.c
00000000 l    df *ABS*	00000000 wcrtomb.c
00000000 l    df *ABS*	00000000 wctomb_r.c
00000000 l    df *ABS*	00000000 libgcc2.c
00000000 l    df *ABS*	00000000 libgcc2.c
00000000 l    df *ABS*	00000000 eqdf2.c
00000000 l    df *ABS*	00000000 gedf2.c
00000000 l    df *ABS*	00000000 ledf2.c
00000000 l    df *ABS*	00000000 muldf3.c
00000000 l    df *ABS*	00000000 subdf3.c
00000000 l    df *ABS*	00000000 fixdfsi.c
00000000 l    df *ABS*	00000000 floatsidf.c
00000000 l    df *ABS*	00000000 floatunsidf.c
00000000 l    df *ABS*	00000000 alt_close.c
00052c10 l     F .text	0000003c alt_get_errno
00000000 l    df *ABS*	00000000 alt_dev.c
00052d1c l     F .text	0000002c alt_dev_null_write
00000000 l    df *ABS*	00000000 alt_errno.c
00000000 l    df *ABS*	00000000 alt_fstat.c
00052d48 l     F .text	0000003c alt_get_errno
00000000 l    df *ABS*	00000000 alt_iic.c
00000000 l    df *ABS*	00000000 alt_iic_isr_register.c
00000000 l    df *ABS*	00000000 alt_irq_vars.c
00000000 l    df *ABS*	00000000 alt_isatty.c
000530d4 l     F .text	0000003c alt_get_errno
00000000 l    df *ABS*	00000000 alt_load.c
000531b4 l     F .text	00000068 alt_load_section
00000000 l    df *ABS*	00000000 alt_lseek.c
000532a0 l     F .text	0000003c alt_get_errno
00000000 l    df *ABS*	00000000 alt_main.c
00000000 l    df *ABS*	00000000 alt_malloc_lock.c
00000000 l    df *ABS*	00000000 alt_read.c
00053474 l     F .text	0000003c alt_get_errno
00000000 l    df *ABS*	00000000 alt_release_fd.c
00000000 l    df *ABS*	00000000 alt_sbrk.c
00057ad0 l     O .rwdata	00000004 heap_end
00000000 l    df *ABS*	00000000 alt_usleep.c
00000000 l    df *ABS*	00000000 alt_write.c
000536f0 l     F .text	0000003c alt_get_errno
00000000 l    df *ABS*	00000000 alt_sys_init.c
00053824 l     F .text	00000034 alt_dev_reg
00056a3c l     O .rwdata	00001060 jtag_uart
00000000 l    df *ABS*	00000000 altera_avalon_jtag_uart_fd.c
00000000 l    df *ABS*	00000000 altera_avalon_jtag_uart_init.c
00053b14 l     F .text	0000020c altera_avalon_jtag_uart_irq
00053d20 l     F .text	000000a0 altera_avalon_jtag_uart_timeout
00000000 l    df *ABS*	00000000 altera_avalon_jtag_uart_ioctl.c
00000000 l    df *ABS*	00000000 altera_avalon_jtag_uart_read.c
00000000 l    df *ABS*	00000000 altera_avalon_jtag_uart_write.c
00000000 l    df *ABS*	00000000 altera_avalon_timer_sc.c
00054358 l     F .text	00000078 alt_avalon_timer_sc_irq
00000000 l    df *ABS*	00000000 alt_alarm_start.c
00000000 l    df *ABS*	00000000 alt_busy_sleep.c
00000000 l    df *ABS*	00000000 alt_dcache_flush_all.c
00000000 l    df *ABS*	00000000 alt_dev_llist_insert.c
00054718 l     F .text	0000003c alt_get_errno
00000000 l    df *ABS*	00000000 alt_do_ctors.c
00000000 l    df *ABS*	00000000 alt_do_dtors.c
00000000 l    df *ABS*	00000000 alt_icache_flush_all.c
00000000 l    df *ABS*	00000000 alt_io_redirect.c
00054988 l     F .text	000000c4 alt_open_fd
00000000 l    df *ABS*	00000000 alt_open.c
00054ac8 l     F .text	0000003c alt_get_errno
00054b04 l     F .text	000000c4 alt_file_locked
00000000 l    df *ABS*	00000000 alt_tick.c
00000000 l    df *ABS*	00000000 altera_nios2_gen2_irq.c
00000000 l    df *ABS*	00000000 alt_find_dev.c
00000000 l    df *ABS*	00000000 alt_find_file.c
00000000 l    df *ABS*	00000000 alt_get_fd.c
00000000 l    df *ABS*	00000000 alt_icache_flush.c
00000000 l    df *ABS*	00000000 atexit.c
00000000 l    df *ABS*	00000000 exit.c
00000000 l    df *ABS*	00000000 memcmp.c
00000000 l    df *ABS*	00000000 __atexit.c
00000000 l    df *ABS*	00000000 __call_atexit.c
00000000 l    df *ABS*	00000000 alt_exit.c
000596c4 g     O .bss	00000004 alt_instruction_exception_handler
0004cfac g     F .text	00000074 _mprec_log10
00041e4c g     F .text	0000013c I2C_Read
0004d098 g     F .text	0000008c __any_on
0005089c g     F .text	00000054 _isatty_r
00055d9c g     O .rodata	00000028 __mprec_tinytens
000533b0 g     F .text	0000007c alt_main
00043f3c g     F .text	000000c0 _puts_r
000596f8 g     O .bss	00000100 alt_irq
000508f0 g     F .text	00000060 _lseek_r
00057adc g       *ABS*	00000000 __flash_rwdata_start
000517a0 g     F .text	00000088 .hidden __eqdf2
000597f8 g       *ABS*	00000000 __alt_heap_start
00043f00 g     F .text	0000003c printf
00050b08 g     F .text	0000009c _wcrtomb_r
0004d828 g     F .text	0000005c __sseek
0004a70c g     F .text	00000010 __sinit
000509b0 g     F .text	00000140 __swbuf_r
0004099c g     F .text	000000b4 HDMI_TX_WriteI2C_ByteN_0
0004b1d4 g     F .text	0000007c _setlocale_r
0004a574 g     F .text	00000068 __sfmoreglue
00053450 g     F .text	00000024 __malloc_unlock
0004bea4 g     F .text	0000015c memmove
0004a6f4 g     F .text	00000018 _cleanup
0004c128 g     F .text	000000a8 _Balloc
00051828 g     F .text	000000dc .hidden __gtdf2
00054ec0 g     F .text	00000024 altera_nios2_gen2_irq_init
00042218 g     F .text	0000012c i2c_write
00040000 g     F .entry	0000001c __reset
0004107c g     F .text	000006e8 Meaurement
00040020 g       *ABS*	00000000 __flash_exceptions_start
00050840 g     F .text	0000005c _fstat_r
000596b0 g     O .bss	00000004 errno
0004d7a4 g     F .text	00000008 __seofread
0004db38 g     F .text	0000123c ___svfiprintf_internal_r
000596bc g     O .bss	00000004 alt_argv
0005fa9c g       *ABS*	00000000 _gp
000536c0 g     F .text	00000030 usleep
000408f0 g     F .text	000000ac HDMI_TX_ReadI2C_ByteN_0
000568bc g     O .rwdata	00000180 alt_fd_list
00040fe0 g     F .text	0000009c IsTmdsClockDetected
00054ee4 g     F .text	00000090 alt_find_dev
0004bd5c g     F .text	00000148 memcpy
00040d1c g     F .text	0000019c InitSII9136
0004a3c4 g     F .text	0000000c _cleanup_r
00052a8c g     F .text	000000dc .hidden __floatsidf
00054a4c g     F .text	0000007c alt_io_redirect
00051904 g     F .text	000000f4 .hidden __ltdf2
00055544 g       *ABS*	00000000 __DTOR_END__
00043ffc g     F .text	00000014 puts
000548ec g     F .text	0000009c alt_exception_cause_generated_bad_addr
0004d688 g     F .text	00000074 __fpclassifyd
0004cf08 g     F .text	000000a4 __ratio
00040eb8 g     F .text	00000064 HDMI_TX_Init
000502e4 g     F .text	0000001c __vfiprintf_internal
00053f18 g     F .text	0000021c altera_avalon_jtag_uart_read
00043ed0 g     F .text	00000030 _printf_r
00043e14 g     F .text	00000064 .hidden __udivsi3
00053110 g     F .text	000000a4 isatty
00055dec g     O .rodata	000000c8 __mprec_tens
0004b250 g     F .text	0000000c __locale_charset
00048704 g     F .text	00000034 vsnprintf
00055120 g     F .text	00000090 alt_icache_flush
00041f88 g     F .text	0000018c I2C_MultipleRead
000596ac g     O .bss	00000004 __malloc_top_pad
00057aa4 g     O .rwdata	00000004 __mb_cur_max
0004b280 g     F .text	0000000c _localeconv_r
0004c534 g     F .text	0000003c __i2b
0004ab90 g     F .text	000004bc __sfvwrite_r
0004d6fc g     F .text	00000054 _sbrk_r
00040f1c g     F .text	000000c4 IsPortDetected
00040be4 g     F .text	00000138 HDMI_TX_ChipVerify
00050950 g     F .text	00000060 _read_r
00057ac4 g     O .rwdata	00000004 alt_max_fd
00050534 g     F .text	000000f0 _fclose_r
0004a38c g     F .text	00000030 fflush
000596a8 g     O .bss	00000004 __malloc_max_sbrked_mem
00043a00 g     F .text	00000110 .hidden __extendsfdf2
0004286c g     F .text	000008ac .hidden __adddf3
00041c98 g     F .text	00000058 I2C_Open
0004ccb0 g     F .text	0000010c __b2d
00051268 g     F .text	00000538 .hidden __umoddi3
000532dc g     F .text	000000d4 lseek
00057a9c g     O .rwdata	00000004 _global_impure_ptr
0004d124 g     F .text	00000564 _realloc_r
000597f8 g       *ABS*	00000000 __bss_end
00052fe4 g     F .text	000000f0 alt_iic_isr_register
00054db8 g     F .text	00000108 alt_tick
00050cf0 g     F .text	00000578 .hidden __udivdi3
00040564 g     F .text	000000e4 hdmi_read_video_statue
0005079c g     F .text	00000024 _fputwc_r
00055dc4 g     O .rodata	00000028 __mprec_bigtens
0004c318 g     F .text	00000104 __s2b
00052b68 g     F .text	000000a8 .hidden __floatunsidf
0004c9f0 g     F .text	00000060 __mcmp
0004a72c g     F .text	00000018 __fp_lock_all
00052f98 g     F .text	0000004c alt_ic_irq_enabled
00041d38 g     F .text	00000114 I2C_Write
00054d1c g     F .text	0000009c alt_alarm_stop
000596b4 g     O .bss	00000004 alt_irq_active
000400fc g     F .exceptions	000000d4 alt_irq_handler
00056894 g     O .rwdata	00000028 alt_dev_null
00042114 g     F .text	0000008c i2c_start
000546d0 g     F .text	00000048 alt_dcache_flush_all
0004c41c g     F .text	00000068 __hi0bits
00052a0c g     F .text	00000080 .hidden __fixdfsi
00057adc g       *ABS*	00000000 __ram_rwdata_end
00057abc g     O .rwdata	00000008 alt_dev_list
0005372c g     F .text	000000f8 write
00055f20 g       *ABS*	00000000 __ram_rodata_end
00052d84 g     F .text	000000b0 fstat
00051904 g     F .text	000000f4 .hidden __ledf2
000424d4 g     F .text	0000006c myprintf
0004c768 g     F .text	00000140 __pow5mult
0004ee88 g     F .text	0000145c ___vfiprintf_internal_r
000596a0 g     O .bss	00000004 __nlocale_changed
00043e78 g     F .text	00000058 .hidden __umodsi3
000597f8 g       *ABS*	00000000 end
000404f4 g     F .text	00000070 hdmi_DE_REGEN_FILTER_STATUS
00053a54 g     F .text	000000c0 altera_avalon_jtag_uart_init
000401d0 g     F .exceptions	00000074 alt_instruction_exception_entry
00041764 g     F .text	00000160 WriteRxEDID
00055544 g       *ABS*	00000000 __CTOR_LIST__
0007e800 g       *ABS*	00000000 __alt_stack_pointer
000543d0 g     F .text	0000007c alt_avalon_timer_sc_init
00043cb8 g     F .text	00000064 .hidden __clzsi2
00054134 g     F .text	00000224 altera_avalon_jtag_uart_write
0004a71c g     F .text	00000004 __sfp_lock_acquire
0004bc78 g     F .text	000000e4 memchr
00046344 g     F .text	000021f8 ___vfprintf_internal_r
00044010 g     F .text	00000058 _sprintf_r
0004a880 g     F .text	00000310 _free_r
0004b25c g     F .text	00000010 __locale_mb_cur_max
00055390 g     F .text	00000180 __call_exitprocs
0005969c g     O .bss	00000004 __mlocale_changed
00057aa8 g     O .rwdata	00000004 __malloc_sbrk_base
00040244 g     F .text	0000004c _start
000596c8 g     O .bss	00000004 _alt_tick_rate
0004c8a8 g     F .text	00000148 __lshift
000596cc g     O .bss	00000004 _alt_nticks
000534b0 g     F .text	000000fc read
00053890 g     F .text	00000060 alt_sys_init
00042658 g     F .text	00000124 .hidden __floatsisf
0004d968 g     F .text	000001d0 __ssprint_r
00055278 g     F .text	00000118 __register_exitproc
0004c570 g     F .text	000001f8 __multiply
00053dc0 g     F .text	00000068 altera_avalon_jtag_uart_close
00055f20 g       *ABS*	00000000 __ram_rwdata_start
00055544 g       *ABS*	00000000 __ram_rodata_start
000596d0 g     O .bss	00000028 __malloc_current_mallinfo
0004cdbc g     F .text	0000014c __d2b
00040a98 g     F .text	00000050 HDMI_TX_WriteI2C_Byte_0
000538f0 g     F .text	00000060 altera_avalon_jtag_uart_read_fd
0005507c g     F .text	000000a4 alt_get_fd
00054578 g     F .text	00000158 alt_busy_sleep
0005041c g     F .text	00000054 _close_r
000551fc g     F .text	0000007c memcmp
000539b0 g     F .text	00000050 altera_avalon_jtag_uart_close_fd
000597f8 g       *ABS*	00000000 __alt_stack_base
00053a00 g     F .text	00000054 altera_avalon_jtag_uart_ioctl_fd
00048738 g     F .text	00000154 __swsetup_r
00043118 g     F .text	000008e8 .hidden __divdf3
0004a5dc g     F .text	00000118 __sfp
0004d020 g     F .text	00000078 __copybits
0005648c g     O .rwdata	00000408 __malloc_av_
0004a728 g     F .text	00000004 __sinit_lock_release
00048614 g     F .text	000000f0 _vsnprintf_r
000421a0 g     F .text	00000078 i2c_stop
000519f8 g     F .text	00000718 .hidden __muldf3
0004d750 g     F .text	00000054 __sread
00054f74 g     F .text	00000108 alt_find_file
00054754 g     F .text	000000a4 alt_dev_llist_insert
0005342c g     F .text	00000024 __malloc_lock
00053610 g     F .text	000000b0 sbrk
0004416c g     F .text	000021d8 ___svfprintf_internal_r
0004a330 g     F .text	0000005c _fflush_r
00050470 g     F .text	000000c4 _calloc_r
00040860 g     F .text	00000090 hdmi_interrupt_init
00059698 g       *ABS*	00000000 __bss_start
0004c000 g     F .text	00000128 memset
000418c4 g     F .text	000003d4 main
000596c0 g     O .bss	00000004 alt_envp
000596a4 g     O .bss	00000004 __malloc_max_total_mem
00042540 g     F .text	00000088 myprintf_hexarray
00053950 g     F .text	00000060 altera_avalon_jtag_uart_write_fd
00040ae8 g     F .text	0000006c HDMI_TX_TPI_Mode_Enable
00042344 g     F .text	0000015c i2c_read
00050af0 g     F .text	00000018 __swbuf
00055f20 g     O .rwdata	000000d0 regData
0004d884 g     F .text	00000008 __sclose
0007e800 g       *ABS*	00000000 __alt_heap_limit
00050624 g     F .text	00000014 fclose
00043b10 g     F .text	000001a8 .hidden __truncdfsf2
00048a8c g     F .text	00001688 _dtoa_r
0004b46c g     F .text	0000080c _malloc_r
00050c64 g     F .text	00000030 __ascii_wctomb
00057ac8 g     O .rwdata	00000004 alt_errno
00040648 g     F .text	00000080 hdmi_port_enable
0004b04c g     F .text	000000c4 _fwalk
00043d1c g     F .text	00000084 .hidden __divsi3
0004a75c g     F .text	00000124 _malloc_trim_r
00055544 g       *ABS*	00000000 __CTOR_END__
00040470 g     F .text	00000084 hdmi_rx_regwrite
0004d88c g     F .text	000000dc strcmp
00040354 g     F .text	0000011c HDMIRX_VerifyEeprom
00055544 g       *ABS*	00000000 __flash_rodata_start
00055544 g       *ABS*	00000000 __DTOR_LIST__
000517a0 g     F .text	00000088 .hidden __nedf2
00053858 g     F .text	00000038 alt_irq_init
000535ac g     F .text	00000064 alt_release_fd
00044068 g     F .text	0000006c sprintf
00055be7 g     O .rodata	00000100 .hidden __clz_tab
000424a0 g     F .text	00000034 debug_output
00059698 g     O .bss	00000004 _PathLocale
000551b0 g     F .text	00000014 atexit
00040290 g     F .text	000000c4 HDMIRX_WriteEeprom
000503bc g     F .text	00000060 _write_r
0004b28c g     F .text	00000018 setlocale
0004074c g     F .text	000000a8 hdmi_port_detect_st_raw
00057aa0 g     O .rwdata	00000004 _impure_ptr
000596b8 g     O .bss	00000004 alt_argc
0004a114 g     F .text	0000021c __sflush_r
00054858 g     F .text	00000060 _do_dtors
0004b278 g     F .text	00000008 __locale_cjk_lang
000425c8 g     F .text	00000090 myprintf_dwordarray
00040020 g       .exceptions	00000000 alt_irq_entry
0004cc4c g     F .text	00000064 __ulp
0004a744 g     F .text	00000018 __fp_unlock_all
00057ab4 g     O .rwdata	00000008 alt_fs_list
000406c8 g     F .text	00000084 hdmi_port_detect_st_cl
00040020 g       *ABS*	00000000 __ram_exceptions_start
0004b2a4 g     F .text	0000000c localeconv
00040000 g       *ABS*	00000000 __alt_mem_onchip_memory2
00052e34 g     F .text	00000050 alt_ic_isr_register
00057adc g       *ABS*	00000000 _edata
000597f8 g       *ABS*	00000000 _end
00050638 g     F .text	00000164 __fputwc
00040244 g       *ABS*	00000000 __ram_exceptions_end
00053e28 g     F .text	000000f0 altera_avalon_jtag_uart_ioctl
00052f0c g     F .text	0000008c alt_ic_irq_disable
0004d7ac g     F .text	0000007c __swrite
00057aac g     O .rwdata	00000004 __malloc_trim_threshold
0004b26c g     F .text	0000000c __locale_msgcharset
000551c4 g     F .text	00000038 exit
0004b110 g     F .text	000000c4 _fwalk_reent
0004277c g     F .text	000000f0 .hidden __floatunsisf
0004ca50 g     F .text	000001fc __mdiff
00043da0 g     F .text	00000074 .hidden __modsi3
0007e800 g       *ABS*	00000000 __alt_data_end
00040020 g     F .exceptions	00000000 alt_exception
0004a720 g     F .text	00000004 __sfp_lock_release
00040a50 g     F .text	00000048 HDMI_TX_ReadI2C_Byte_0
00055510 g     F .text	00000034 _exit
0005444c g     F .text	0000012c alt_alarm_start
00040b54 g     F .text	00000090 HDMI_TX_Reset
0004b2b0 g     F .text	000001bc __smakebuf_r
00041cf0 g     F .text	00000048 I2C_Close
000440d4 g     F .text	00000098 strlen
00054bc8 g     F .text	00000154 open
00051828 g     F .text	000000dc .hidden __gedf2
00057ab0 g     O .rwdata	00000004 __wctomb
0004ee70 g     F .text	00000018 __sprint_r
000548b8 g     F .text	00000034 alt_icache_flush_all
00057acc g     O .rwdata	00000004 alt_priority_mask
00052e84 g     F .text	00000088 alt_ic_irq_enable
0004853c g     F .text	0000001c __vfprintf_internal
00050c94 g     F .text	0000005c _wctomb_r
00052110 g     F .text	000008fc .hidden __subdf3
0004c484 g     F .text	000000b0 __lo0bits
00057ad4 g     O .rwdata	00000008 alt_alarm_list
000547f8 g     F .text	00000060 _do_ctors
00050ba4 g     F .text	000000c0 wcrtomb
00052c4c g     F .text	000000d0 close
0005321c g     F .text	00000084 alt_load
000507c0 g     F .text	00000080 fputwc
0004a724 g     F .text	00000004 __sinit_lock_acquire
0004c1f8 g     F .text	00000120 __multadd
0004c1d0 g     F .text	00000028 _Bfree
00055544 g     O .rodata	00000100 szDefaultEDID



Disassembly of section .entry:

00040000 <__reset>:
#if NIOS2_ICACHE_SIZE > 0 && defined(ALT_ALLOW_CODE_AT_RESET) && (!defined(ALT_SIM_OPTIMIZE) || defined(NIOS2_ECC_PRESENT))
    /* Assume the instruction cache size is always a power of two. */
#if NIOS2_ICACHE_SIZE > 0x8000
    movhi r2, %hi(NIOS2_ICACHE_SIZE)
#else
    movui r2, NIOS2_ICACHE_SIZE
   40000:	00840014 	movui	r2,4096
#endif

0:
    initi r2
   40004:	1001483a 	initi	r2
    addi r2, r2, -NIOS2_ICACHE_LINE_SIZE
   40008:	10bff804 	addi	r2,r2,-32
    bgt r2, zero, 0b
   4000c:	00bffd16 	blt	zero,r2,40004 <__alt_data_end+0xfffc1804>
 * Jump to the _start entry point in the .text section if reset code
 * is allowed or if optimizing for RTL simulation.
 */
#if defined(ALT_ALLOW_CODE_AT_RESET) || defined(ALT_SIM_OPTIMIZE)
    /* Jump to the _start entry point in the .text section. */
    movhi r1, %hi(_start)
   40010:	00400134 	movhi	at,4
    ori r1, r1, %lo(_start)
   40014:	08409114 	ori	at,at,580
    jmp r1
   40018:	0800683a 	jmp	at
   4001c:	00000000 	call	0 <__reset-0x40000>

Disassembly of section .exceptions:

00040020 <alt_exception>:

#else /* ALT_EXCEPTION_STACK disabled */
        /* 
         * Reserve space on normal stack for registers about to be pushed.
         */
        addi  sp, sp, -76
   40020:	deffed04 	addi	sp,sp,-76
         * documentation for details).
         *
         * Leave a gap in the stack frame at 4(sp) for the muldiv handler to
         * store zero into.
         */
        stw   ra,  0(sp)
   40024:	dfc00015 	stw	ra,0(sp)
        stw   r1,   8(sp)
   40028:	d8400215 	stw	at,8(sp)
        stw   r2,  12(sp)
   4002c:	d8800315 	stw	r2,12(sp)
        stw   r3,  16(sp)
   40030:	d8c00415 	stw	r3,16(sp)
        stw   r4,  20(sp)
   40034:	d9000515 	stw	r4,20(sp)
        stw   r5,  24(sp)
   40038:	d9400615 	stw	r5,24(sp)
        stw   r6,  28(sp)
   4003c:	d9800715 	stw	r6,28(sp)
        stw   r7,  32(sp)
   40040:	d9c00815 	stw	r7,32(sp)
        rdctl r5, estatus   /* Read early to avoid usage stall */
   40044:	000b307a 	rdctl	r5,estatus
        stw   r8,  36(sp)
   40048:	da000915 	stw	r8,36(sp)
        stw   r9,  40(sp)
   4004c:	da400a15 	stw	r9,40(sp)
        stw   r10, 44(sp)
   40050:	da800b15 	stw	r10,44(sp)
        stw   r11, 48(sp)
   40054:	dac00c15 	stw	r11,48(sp)
        stw   r12, 52(sp)
   40058:	db000d15 	stw	r12,52(sp)
        stw   r13, 56(sp)
   4005c:	db400e15 	stw	r13,56(sp)
        stw   r14, 60(sp)
   40060:	db800f15 	stw	r14,60(sp)
        stw   r15, 64(sp)
   40064:	dbc01015 	stw	r15,64(sp)
        /*
         * ea-4 contains the address of the instruction being executed
         * when the exception occured. For interrupt exceptions, we will
         * will be re-issue the isntruction. Store it in 72(sp)
         */
        stw   r5,  68(sp)  /* estatus */
   40068:	d9401115 	stw	r5,68(sp)
        addi  r15, ea, -4  /* instruction that caused exception */
   4006c:	ebffff04 	addi	r15,ea,-4
        stw   r15,  72(sp)
   40070:	dbc01215 	stw	r15,72(sp)
#else
        /*
         * Test to see if the exception was a software exception or caused 
         * by an external interrupt, and vector accordingly.
         */
        rdctl r4, ipending
   40074:	0009313a 	rdctl	r4,ipending
        andi  r2, r5, 1
   40078:	2880004c 	andi	r2,r5,1
        beq   r2, zero, .Lnot_irq
   4007c:	10000326 	beq	r2,zero,4008c <alt_exception+0x6c>
        beq   r4, zero, .Lnot_irq
   40080:	20000226 	beq	r4,zero,4008c <alt_exception+0x6c>
        /*
         * Now that all necessary registers have been preserved, call 
         * alt_irq_handler() to process the interrupts.
         */

        call alt_irq_handler
   40084:	00400fc0 	call	400fc <alt_irq_handler>

        .section .exceptions.irqreturn, "xa"

        br    .Lexception_exit
   40088:	00000706 	br	400a8 <alt_exception+0x88>
         * upon completion, so we write ea (address of instruction *after*
         * the one where the exception occured) into 72(sp). The actual
         * instruction that caused the exception is written in r2, which these
         * handlers will utilize.
         */
        stw ea, 72(sp) /* EA is PC+4 so will skip over instruction causing exception */
   4008c:	df401215 	stw	ea,72(sp)
.Lunknown_16bit:
        addi.n r4, r4, 2 /* Need PC+2 to skip over instruction causing exception */
        stw r4, 72(sp)

#else /* CDX is not Enabled and all instructions are 32bits */
        ldw r2, -4(ea) /* Instruction value that caused exception */
   40090:	e8bfff17 	ldw	r2,-4(ea)
         * debugger is present) or go into an infinite loop since the
         * handling behavior is undefined; in that case we will not return here.
         */

        /* Load exception-causing address as first argument (r4) */
        addi   r4, ea, -4
   40094:	e93fff04 	addi	r4,ea,-4

        /* Call the instruction-exception entry */
        call   alt_instruction_exception_entry
   40098:	00401d00 	call	401d0 <alt_instruction_exception_entry>
         * instruction
         *
         * Return code was 0: Skip. The instruction after the exception is
         * already stored in 72(sp).
         */
        bne   r2, r0, .Lexception_exit
   4009c:	1000021e 	bne	r2,zero,400a8 <alt_exception+0x88>

        /*
         * Otherwise, modify 72(sp) to re-issue the instruction that caused the
         * exception.
         */
        addi  r15, ea, -4  /* instruction that caused exception */
   400a0:	ebffff04 	addi	r15,ea,-4
        stw   r15,  72(sp)
   400a4:	dbc01215 	stw	r15,72(sp)
        /* 
         * Restore the saved registers, so that all general purpose registers 
         * have been restored to their state at the time the interrupt occured.
         */

        ldw   r5,  68(sp)
   400a8:	d9401117 	ldw	r5,68(sp)
        ldw   ea,  72(sp)  /* This becomes the PC once eret is executed */
   400ac:	df401217 	ldw	ea,72(sp)
        ldw   ra,   0(sp)
   400b0:	dfc00017 	ldw	ra,0(sp)

        wrctl estatus, r5
   400b4:	2801707a 	wrctl	estatus,r5

        ldw   r1,   8(sp)
   400b8:	d8400217 	ldw	at,8(sp)
        ldw   r2,  12(sp)
   400bc:	d8800317 	ldw	r2,12(sp)
        ldw   r3,  16(sp)
   400c0:	d8c00417 	ldw	r3,16(sp)
        ldw   r4,  20(sp)
   400c4:	d9000517 	ldw	r4,20(sp)
        ldw   r5,  24(sp)
   400c8:	d9400617 	ldw	r5,24(sp)
        ldw   r6,  28(sp)
   400cc:	d9800717 	ldw	r6,28(sp)
        ldw   r7,  32(sp)
   400d0:	d9c00817 	ldw	r7,32(sp)

#if defined(ALT_EXCEPTION_STACK) && defined(ALT_STACK_CHECK)
        ldw   et, %gprel(alt_exception_old_stack_limit)(gp)
#endif

        ldw   r8,  36(sp)
   400d4:	da000917 	ldw	r8,36(sp)
        ldw   r9,  40(sp)
   400d8:	da400a17 	ldw	r9,40(sp)
        ldw   r10, 44(sp)
   400dc:	da800b17 	ldw	r10,44(sp)
        ldw   r11, 48(sp)
   400e0:	dac00c17 	ldw	r11,48(sp)
        ldw   r12, 52(sp)
   400e4:	db000d17 	ldw	r12,52(sp)
        ldw   r13, 56(sp)
   400e8:	db400e17 	ldw	r13,56(sp)
        ldw   r14, 60(sp)
   400ec:	db800f17 	ldw	r14,60(sp)
        ldw   r15, 64(sp)
   400f0:	dbc01017 	ldw	r15,64(sp)
        stw   et, %gprel(alt_stack_limit_value)(gp)
        stw   zero, %gprel(alt_exception_old_stack_limit)(gp)
#endif /* ALT_STACK_CHECK */
        ldw   sp,  76(sp)
#else /* ALT_EXCEPTION_STACK disabled */
        addi  sp, sp, 76
   400f4:	dec01304 	addi	sp,sp,76

        /*
         * Return to the interrupted instruction.
         */

        eret
   400f8:	ef80083a 	eret

000400fc <alt_irq_handler>:
 * instruction is present if the macro ALT_CI_INTERRUPT_VECTOR defined.
 */

void alt_irq_handler (void) __attribute__ ((section (".exceptions")));
void alt_irq_handler (void)
{
   400fc:	defff904 	addi	sp,sp,-28
   40100:	dfc00615 	stw	ra,24(sp)
   40104:	df000515 	stw	fp,20(sp)
   40108:	df000504 	addi	fp,sp,20
  
  /*
   * Notify the operating system that we are at interrupt level.
   */ 
  
  ALT_OS_INT_ENTER();
   4010c:	0001883a 	nop
#ifndef NIOS2_EIC_PRESENT
static ALT_INLINE alt_u32 ALT_ALWAYS_INLINE alt_irq_pending (void)
{
  alt_u32 active;

  NIOS2_READ_IPENDING (active);
   40110:	0005313a 	rdctl	r2,ipending
   40114:	e0bffe15 	stw	r2,-8(fp)

  return active;
   40118:	e0bffe17 	ldw	r2,-8(fp)
   * Consider the case where the high priority interupt is asserted during
   * the interrupt entry sequence for a lower priority interrupt to see why
   * this is the case.
   */

  active = alt_irq_pending ();
   4011c:	e0bffb15 	stw	r2,-20(fp)

  do
  {
    i = 0;
   40120:	e03ffd15 	stw	zero,-12(fp)
    mask = 1;
   40124:	00800044 	movi	r2,1
   40128:	e0bffc15 	stw	r2,-16(fp)
     * called to clear the interrupt condition.
     */

    do
    {
      if (active & mask)
   4012c:	e0fffb17 	ldw	r3,-20(fp)
   40130:	e0bffc17 	ldw	r2,-16(fp)
   40134:	1884703a 	and	r2,r3,r2
   40138:	10001426 	beq	r2,zero,4018c <alt_irq_handler+0x90>
      { 
#ifdef ALT_ENHANCED_INTERRUPT_API_PRESENT
        alt_irq[i].handler(alt_irq[i].context); 
   4013c:	008001b4 	movhi	r2,6
   40140:	10a5be04 	addi	r2,r2,-26888
   40144:	e0fffd17 	ldw	r3,-12(fp)
   40148:	180690fa 	slli	r3,r3,3
   4014c:	10c5883a 	add	r2,r2,r3
   40150:	10c00017 	ldw	r3,0(r2)
   40154:	008001b4 	movhi	r2,6
   40158:	10a5be04 	addi	r2,r2,-26888
   4015c:	e13ffd17 	ldw	r4,-12(fp)
   40160:	200890fa 	slli	r4,r4,3
   40164:	1105883a 	add	r2,r2,r4
   40168:	10800104 	addi	r2,r2,4
   4016c:	10800017 	ldw	r2,0(r2)
   40170:	1009883a 	mov	r4,r2
   40174:	183ee83a 	callr	r3
#else
        alt_irq[i].handler(alt_irq[i].context, i); 
#endif
        break;
   40178:	0001883a 	nop
#ifndef NIOS2_EIC_PRESENT
static ALT_INLINE alt_u32 ALT_ALWAYS_INLINE alt_irq_pending (void)
{
  alt_u32 active;

  NIOS2_READ_IPENDING (active);
   4017c:	0005313a 	rdctl	r2,ipending
   40180:	e0bfff15 	stw	r2,-4(fp)

  return active;
   40184:	e0bfff17 	ldw	r2,-4(fp)
   40188:	00000706 	br	401a8 <alt_irq_handler+0xac>
      }
      mask <<= 1;
   4018c:	e0bffc17 	ldw	r2,-16(fp)
   40190:	1085883a 	add	r2,r2,r2
   40194:	e0bffc15 	stw	r2,-16(fp)
      i++;
   40198:	e0bffd17 	ldw	r2,-12(fp)
   4019c:	10800044 	addi	r2,r2,1
   401a0:	e0bffd15 	stw	r2,-12(fp)

    } while (1);
   401a4:	003fe106 	br	4012c <__alt_data_end+0xfffc192c>

    active = alt_irq_pending ();
   401a8:	e0bffb15 	stw	r2,-20(fp)
    
  } while (active);
   401ac:	e0bffb17 	ldw	r2,-20(fp)
   401b0:	103fdb1e 	bne	r2,zero,40120 <__alt_data_end+0xfffc1920>

  /*
   * Notify the operating system that interrupt processing is complete.
   */ 

  ALT_OS_INT_EXIT();
   401b4:	0001883a 	nop
}
   401b8:	0001883a 	nop
   401bc:	e037883a 	mov	sp,fp
   401c0:	dfc00117 	ldw	ra,4(sp)
   401c4:	df000017 	ldw	fp,0(sp)
   401c8:	dec00204 	addi	sp,sp,8
   401cc:	f800283a 	ret

000401d0 <alt_instruction_exception_entry>:
 * that handler if it has been registered. Absent a handler, it will
 * break break or hang as discussed below.
 */
int 
alt_instruction_exception_entry (alt_u32 exception_pc)
{
   401d0:	defffb04 	addi	sp,sp,-20
   401d4:	dfc00415 	stw	ra,16(sp)
   401d8:	df000315 	stw	fp,12(sp)
   401dc:	df000304 	addi	fp,sp,12
   401e0:	e13fff15 	stw	r4,-4(fp)
 * NIOS2_EXCEPTION_CAUSE_NOT_PRESENT. Your handling routine should
 * check the validity of the cause argument before proceeding.
 */
#ifdef NIOS2_HAS_EXTRA_EXCEPTION_INFO
  /* Get exception cause & "badaddr" */
  NIOS2_READ_EXCEPTION(cause);
   401e4:	000531fa 	rdctl	r2,exception
   401e8:	e0bffd15 	stw	r2,-12(fp)
  cause = ( (cause & NIOS2_EXCEPTION_REG_CAUSE_MASK) >>
   401ec:	e0bffd17 	ldw	r2,-12(fp)
   401f0:	10801f0c 	andi	r2,r2,124
   401f4:	1004d0ba 	srli	r2,r2,2
   401f8:	e0bffd15 	stw	r2,-12(fp)
              NIOS2_EXCEPTION_REG_CAUSE_OFST );

  NIOS2_READ_BADADDR(badaddr);
   401fc:	0005333a 	rdctl	r2,badaddr
   40200:	e0bffe15 	stw	r2,-8(fp)
#else
  cause = NIOS2_EXCEPTION_CAUSE_NOT_PRESENT;
  badaddr = 0;
#endif /* NIOS2_HAS_EXTRA_EXCEPTION_INFO */

  if(alt_instruction_exception_handler) {
   40204:	d0a70a17 	ldw	r2,-25560(gp)
   40208:	10000726 	beq	r2,zero,40228 <alt_instruction_exception_entry+0x58>
     * Call handler. Its return value indicates whether the exception-causing
     * instruction should be re-issued. The code that called us,
     * alt_eceptions_entry.S, will look at this value and adjust the ea
     * register as necessary
     */
    return alt_instruction_exception_handler(cause, exception_pc, badaddr);
   4020c:	d0a70a17 	ldw	r2,-25560(gp)
   40210:	e0fffd17 	ldw	r3,-12(fp)
   40214:	e1bffe17 	ldw	r6,-8(fp)
   40218:	e17fff17 	ldw	r5,-4(fp)
   4021c:	1809883a 	mov	r4,r3
   40220:	103ee83a 	callr	r2
   40224:	00000206 	br	40230 <alt_instruction_exception_entry+0x60>
   *    (a peripheral which negates its interrupt output before its
   *    interrupt handler has been executed will cause spurious interrupts)
   */
  else {
#ifdef NIOS2_HAS_DEBUG_STUB
    NIOS2_BREAK();
   40228:	003da03a 	break	0
      ;
#endif /* NIOS2_HAS_DEBUG_STUB */
  }

  /* We should not get here. Remove compiler warning. */
  return NIOS2_EXCEPTION_RETURN_REISSUE_INST;
   4022c:	0005883a 	mov	r2,zero
}
   40230:	e037883a 	mov	sp,fp
   40234:	dfc00117 	ldw	ra,4(sp)
   40238:	df000017 	ldw	fp,0(sp)
   4023c:	dec00204 	addi	sp,sp,8
   40240:	f800283a 	ret

Disassembly of section .text:

00040244 <_start>:

    /* Assume the data cache size is always a power of two. */
#if NIOS2_DCACHE_SIZE > 0x8000
    movhi r2, %hi(NIOS2_DCACHE_SIZE)
#else
    movui r2, NIOS2_DCACHE_SIZE
   40244:	00820014 	movui	r2,2048
#endif

0:
    initd 0(r2)
   40248:	10000033 	initd	0(r2)
#ifdef NIOS2_ECC_PRESENT
    addi r2, r2, -4
#else
    addi r2, r2, -NIOS2_DCACHE_LINE_SIZE
   4024c:	10bff804 	addi	r2,r2,-32
#endif
    bgt r2, zero, 0b
   40250:	00bffd16 	blt	zero,r2,40248 <__alt_data_end+0xfffc1a48>

    /*
     * Now that the caches are initialized, set up the stack pointer and global pointer.
     * The values provided by the linker are assumed to be correctly aligned.
     */
    movhi sp, %hi(__alt_stack_pointer)
   40254:	06c001f4 	movhi	sp,7
    ori sp, sp, %lo(__alt_stack_pointer)
   40258:	defa0014 	ori	sp,sp,59392
    movhi gp, %hi(_gp)
   4025c:	06800174 	movhi	gp,5
    ori gp, gp, %lo(_gp)
   40260:	d6bea714 	ori	gp,gp,64156
 */
#ifndef ALT_SIM_OPTIMIZE
    /* Log that the BSS is about to be cleared. */
    ALT_LOG_PUTS(alt_log_msg_bss)

    movhi r2, %hi(__bss_start)
   40264:	00800174 	movhi	r2,5
    ori r2, r2, %lo(__bss_start)
   40268:	10a5a614 	ori	r2,r2,38552

    movhi r3, %hi(__bss_end)
   4026c:	00c00174 	movhi	r3,5
    ori r3, r3, %lo(__bss_end)
   40270:	18e5fe14 	ori	r3,r3,38904

    beq r2, r3, 1f
   40274:	10c00326 	beq	r2,r3,40284 <_start+0x40>

0:
    stw zero, (r2)
   40278:	10000015 	stw	zero,0(r2)
    addi r2, r2, 4
   4027c:	10800104 	addi	r2,r2,4
    bltu r2, r3, 0b
   40280:	10fffd36 	bltu	r2,r3,40278 <__alt_data_end+0xfffc1a78>
     * section aren't defined until alt_load() has been called).
     */
    mov   et, zero
#endif

    call alt_load
   40284:	005321c0 	call	5321c <alt_load>

    /* Log that alt_main is about to be called. */
    ALT_LOG_PUTS(alt_log_msg_alt_main)

    /* Call the C entry point. It should never return. */
    call alt_main
   40288:	00533b00 	call	533b0 <alt_main>

0004028c <alt_after_alt_main>:

    /* Wait in infinite loop in case alt_main does return. */
alt_after_alt_main:
    br alt_after_alt_main
   4028c:	003fff06 	br	4028c <__alt_data_end+0xfffc1a8c>

00040290 <HDMIRX_WriteEeprom>:
0x25,0x00,0xFA,0x8C,0x00,0x00,0x00,0x1E,0x00,0x00,0x00,0x00,0x00,0x00,0x00,0x9A
};



bool HDMIRX_WriteEeprom(alt_u32   SCL_BASE, alt_u32 SDA_BASE  ){
   40290:	defff704 	addi	sp,sp,-36
   40294:	dfc00815 	stw	ra,32(sp)
   40298:	df000715 	stw	fp,28(sp)
   4029c:	df000704 	addi	fp,sp,28
   402a0:	e13ffe15 	stw	r4,-8(fp)
   402a4:	e17fff15 	stw	r5,-4(fp)
    bool bSuccess = true;
   402a8:	00800044 	movi	r2,1
   402ac:	e0bffa05 	stb	r2,-24(fp)
    int i;
    const alt_u8 *pEdid = szDefaultEDID;
   402b0:	00800174 	movhi	r2,5
   402b4:	10955104 	addi	r2,r2,21828
   402b8:	e0bffc15 	stw	r2,-16(fp)
    int nNum = sizeof(szDefaultEDID)/sizeof(szDefaultEDID[0]);
   402bc:	00804004 	movi	r2,256
   402c0:	e0bffd15 	stw	r2,-12(fp)
    I2C_Open(SCL_BASE, SDA_BASE);
   402c4:	e17fff17 	ldw	r5,-4(fp)
   402c8:	e13ffe17 	ldw	r4,-8(fp)
   402cc:	0041c980 	call	41c98 <I2C_Open>
    for(i=0;i<nNum && bSuccess;i++){
   402d0:	e03ffb15 	stw	zero,-20(fp)
   402d4:	00001106 	br	4031c <HDMIRX_WriteEeprom+0x8c>
            bSuccess = I2C_Write(SCL_BASE, SDA_BASE,0xa0,i, *(pEdid+i));
   402d8:	e0bffb17 	ldw	r2,-20(fp)
   402dc:	11003fcc 	andi	r4,r2,255
   402e0:	e0bffb17 	ldw	r2,-20(fp)
   402e4:	e0fffc17 	ldw	r3,-16(fp)
   402e8:	1885883a 	add	r2,r3,r2
   402ec:	10800003 	ldbu	r2,0(r2)
   402f0:	10803fcc 	andi	r2,r2,255
   402f4:	d8800015 	stw	r2,0(sp)
   402f8:	200f883a 	mov	r7,r4
   402fc:	01bfe804 	movi	r6,-96
   40300:	e17fff17 	ldw	r5,-4(fp)
   40304:	e13ffe17 	ldw	r4,-8(fp)
   40308:	0041d380 	call	41d38 <I2C_Write>
   4030c:	e0bffa05 	stb	r2,-24(fp)
    bool bSuccess = true;
    int i;
    const alt_u8 *pEdid = szDefaultEDID;
    int nNum = sizeof(szDefaultEDID)/sizeof(szDefaultEDID[0]);
    I2C_Open(SCL_BASE, SDA_BASE);
    for(i=0;i<nNum && bSuccess;i++){
   40310:	e0bffb17 	ldw	r2,-20(fp)
   40314:	10800044 	addi	r2,r2,1
   40318:	e0bffb15 	stw	r2,-20(fp)
   4031c:	e0fffb17 	ldw	r3,-20(fp)
   40320:	e0bffd17 	ldw	r2,-12(fp)
   40324:	1880020e 	bge	r3,r2,40330 <HDMIRX_WriteEeprom+0xa0>
   40328:	e0bffa03 	ldbu	r2,-24(fp)
   4032c:	103fea1e 	bne	r2,zero,402d8 <__alt_data_end+0xfffc1ad8>
            bSuccess = I2C_Write(SCL_BASE, SDA_BASE,0xa0,i, *(pEdid+i));
    }
    I2C_Close(SCL_BASE, SDA_BASE);
   40330:	e17fff17 	ldw	r5,-4(fp)
   40334:	e13ffe17 	ldw	r4,-8(fp)
   40338:	0041cf00 	call	41cf0 <I2C_Close>
    return bSuccess;
   4033c:	e0bffa03 	ldbu	r2,-24(fp)
}
   40340:	e037883a 	mov	sp,fp
   40344:	dfc00117 	ldw	ra,4(sp)
   40348:	df000017 	ldw	fp,0(sp)
   4034c:	dec00204 	addi	sp,sp,8
   40350:	f800283a 	ret

00040354 <HDMIRX_VerifyEeprom>:

bool HDMIRX_VerifyEeprom( alt_u32   SCL_BASE, alt_u32 SDA_BASE  ){
   40354:	deffb704 	addi	sp,sp,-292
   40358:	dfc04815 	stw	ra,288(sp)
   4035c:	df004715 	stw	fp,284(sp)
   40360:	df004704 	addi	fp,sp,284
   40364:	e13ffe15 	stw	r4,-8(fp)
   40368:	e17fff15 	stw	r5,-4(fp)
    bool bSuccess = true;
   4036c:	00800044 	movi	r2,1
   40370:	e0bfba05 	stb	r2,-280(fp)
    alt_u8 szEDID[256];
    //alt_u8 szEDID[272];
    int i;
    const alt_u8 *pEdid = szDefaultEDID;
   40374:	00800174 	movhi	r2,5
   40378:	10955104 	addi	r2,r2,21828
   4037c:	e0bfbc15 	stw	r2,-272(fp)
    int nNum = sizeof(szDefaultEDID)/sizeof(szDefaultEDID[0]);
   40380:	00804004 	movi	r2,256
   40384:	e0bfbd15 	stw	r2,-268(fp)

     I2C_Open(SCL_BASE, SDA_BASE);
   40388:	e17fff17 	ldw	r5,-4(fp)
   4038c:	e13ffe17 	ldw	r4,-8(fp)
   40390:	0041c980 	call	41c98 <I2C_Open>

    for(i=0;i<nNum && bSuccess;i++){
   40394:	e03fbb15 	stw	zero,-276(fp)
   40398:	00000f06 	br	403d8 <HDMIRX_VerifyEeprom+0x84>
            bSuccess = I2C_Read(SCL_BASE, SDA_BASE,0xa0,i, &szEDID[i]);
   4039c:	e0bfbb17 	ldw	r2,-276(fp)
   403a0:	11003fcc 	andi	r4,r2,255
   403a4:	e0ffbe04 	addi	r3,fp,-264
   403a8:	e0bfbb17 	ldw	r2,-276(fp)
   403ac:	1885883a 	add	r2,r3,r2
   403b0:	d8800015 	stw	r2,0(sp)
   403b4:	200f883a 	mov	r7,r4
   403b8:	01bfe804 	movi	r6,-96
   403bc:	e17fff17 	ldw	r5,-4(fp)
   403c0:	e13ffe17 	ldw	r4,-8(fp)
   403c4:	0041e4c0 	call	41e4c <I2C_Read>
   403c8:	e0bfba05 	stb	r2,-280(fp)
    const alt_u8 *pEdid = szDefaultEDID;
    int nNum = sizeof(szDefaultEDID)/sizeof(szDefaultEDID[0]);

     I2C_Open(SCL_BASE, SDA_BASE);

    for(i=0;i<nNum && bSuccess;i++){
   403cc:	e0bfbb17 	ldw	r2,-276(fp)
   403d0:	10800044 	addi	r2,r2,1
   403d4:	e0bfbb15 	stw	r2,-276(fp)
   403d8:	e0ffbb17 	ldw	r3,-276(fp)
   403dc:	e0bfbd17 	ldw	r2,-268(fp)
   403e0:	1880020e 	bge	r3,r2,403ec <HDMIRX_VerifyEeprom+0x98>
   403e4:	e0bfba03 	ldbu	r2,-280(fp)
   403e8:	103fec1e 	bne	r2,zero,4039c <__alt_data_end+0xfffc1b9c>
            bSuccess = I2C_Read(SCL_BASE, SDA_BASE,0xa0,i, &szEDID[i]);
//            if (bSuccess)
//            	printf("EDID[%d]=%02xh\r\n", i, szEDID[i]);
    }

    I2C_Close(SCL_BASE, SDA_BASE);
   403ec:	e17fff17 	ldw	r5,-4(fp)
   403f0:	e13ffe17 	ldw	r4,-8(fp)
   403f4:	0041cf00 	call	41cf0 <I2C_Close>

    // compare
    if (bSuccess){
   403f8:	e0bfba03 	ldbu	r2,-280(fp)
   403fc:	10001626 	beq	r2,zero,40458 <HDMIRX_VerifyEeprom+0x104>
        for(i=0;i<nNum && bSuccess;i++){
   40400:	e03fbb15 	stw	zero,-276(fp)
   40404:	00000f06 	br	40444 <HDMIRX_VerifyEeprom+0xf0>
            if (szEDID[i] != *(pEdid+i))
   40408:	e0ffbe04 	addi	r3,fp,-264
   4040c:	e0bfbb17 	ldw	r2,-276(fp)
   40410:	1885883a 	add	r2,r3,r2
   40414:	11000003 	ldbu	r4,0(r2)
   40418:	e0bfbb17 	ldw	r2,-276(fp)
   4041c:	e0ffbc17 	ldw	r3,-272(fp)
   40420:	1885883a 	add	r2,r3,r2
   40424:	10800003 	ldbu	r2,0(r2)
   40428:	20c03fcc 	andi	r3,r4,255
   4042c:	10803fcc 	andi	r2,r2,255
   40430:	18800126 	beq	r3,r2,40438 <HDMIRX_VerifyEeprom+0xe4>
                bSuccess = false;
   40434:	e03fba05 	stb	zero,-280(fp)

    I2C_Close(SCL_BASE, SDA_BASE);

    // compare
    if (bSuccess){
        for(i=0;i<nNum && bSuccess;i++){
   40438:	e0bfbb17 	ldw	r2,-276(fp)
   4043c:	10800044 	addi	r2,r2,1
   40440:	e0bfbb15 	stw	r2,-276(fp)
   40444:	e0ffbb17 	ldw	r3,-276(fp)
   40448:	e0bfbd17 	ldw	r2,-268(fp)
   4044c:	1880020e 	bge	r3,r2,40458 <HDMIRX_VerifyEeprom+0x104>
   40450:	e0bfba03 	ldbu	r2,-280(fp)
   40454:	103fec1e 	bne	r2,zero,40408 <__alt_data_end+0xfffc1c08>
            if (szEDID[i] != *(pEdid+i))
                bSuccess = false;
        }
    }
    return bSuccess;
   40458:	e0bfba03 	ldbu	r2,-280(fp)
}
   4045c:	e037883a 	mov	sp,fp
   40460:	dfc00117 	ldw	ra,4(sp)
   40464:	df000017 	ldw	fp,0(sp)
   40468:	dec00204 	addi	sp,sp,8
   4046c:	f800283a 	ret

00040470 <hdmi_rx_regwrite>:



void hdmi_rx_regwrite(alt_32 data)
{
   40470:	defffb04 	addi	sp,sp,-20
   40474:	dfc00415 	stw	ra,16(sp)
   40478:	df000315 	stw	fp,12(sp)
   4047c:	df000304 	addi	fp,sp,12
   40480:	e13fff15 	stw	r4,-4(fp)
	alt_u8 device_addr=(data>>16)&0xff;
   40484:	e0bfff17 	ldw	r2,-4(fp)
   40488:	1005d43a 	srai	r2,r2,16
   4048c:	e0bffe05 	stb	r2,-8(fp)
	alt_u8 reg_index=(data>>8)&0xff;
   40490:	e0bfff17 	ldw	r2,-4(fp)
   40494:	1005d23a 	srai	r2,r2,8
   40498:	e0bffe45 	stb	r2,-7(fp)
	alt_u8 value=data&0xff;
   4049c:	e0bfff17 	ldw	r2,-4(fp)
   404a0:	e0bffe85 	stb	r2,-6(fp)
	alt_u8  value2;
	I2C_Write(I2C_SCL_BASE ,I2C_SDA_BASE , device_addr ,reg_index ,value);
   404a4:	e0bffe03 	ldbu	r2,-8(fp)
   404a8:	10c03fcc 	andi	r3,r2,255
   404ac:	18c0201c 	xori	r3,r3,128
   404b0:	18ffe004 	addi	r3,r3,-128
   404b4:	e13ffe43 	ldbu	r4,-7(fp)
   404b8:	e0bffe83 	ldbu	r2,-6(fp)
   404bc:	d8800015 	stw	r2,0(sp)
   404c0:	200f883a 	mov	r7,r4
   404c4:	180d883a 	mov	r6,r3
   404c8:	01400234 	movhi	r5,8
   404cc:	29442004 	addi	r5,r5,4224
   404d0:	01000234 	movhi	r4,8
   404d4:	21042404 	addi	r4,r4,4240
   404d8:	0041d380 	call	41d38 <I2C_Write>
	//I2C_Read(I2C_SCL_BASE ,I2C_SDA_BASE , device_addr, reg_index, &value2);
	//printf("value = 0x%x\r\n",value2);
}
   404dc:	0001883a 	nop
   404e0:	e037883a 	mov	sp,fp
   404e4:	dfc00117 	ldw	ra,4(sp)
   404e8:	df000017 	ldw	fp,0(sp)
   404ec:	dec00204 	addi	sp,sp,8
   404f0:	f800283a 	ret

000404f4 <hdmi_DE_REGEN_FILTER_STATUS>:

bool hdmi_DE_REGEN_FILTER_STATUS(void)
{
   404f4:	defffc04 	addi	sp,sp,-16
   404f8:	dfc00315 	stw	ra,12(sp)
   404fc:	df000215 	stw	fp,8(sp)
   40500:	df000204 	addi	fp,sp,8
	alt_u8 value;
	I2C_Read(I2C_SCL_BASE ,I2C_SDA_BASE , 0x68 ,0x07 ,&value);
   40504:	e0bfff04 	addi	r2,fp,-4
   40508:	d8800015 	stw	r2,0(sp)
   4050c:	01c001c4 	movi	r7,7
   40510:	01801a04 	movi	r6,104
   40514:	01400234 	movhi	r5,8
   40518:	29442004 	addi	r5,r5,4224
   4051c:	01000234 	movhi	r4,8
   40520:	21042404 	addi	r4,r4,4240
   40524:	0041e4c0 	call	41e4c <I2C_Read>
	if(value&0x01){
   40528:	e0bfff03 	ldbu	r2,-4(fp)
   4052c:	10803fcc 	andi	r2,r2,255
   40530:	1080004c 	andi	r2,r2,1
   40534:	10000526 	beq	r2,zero,4054c <hdmi_DE_REGEN_FILTER_STATUS+0x58>
		printf("ED_REGEN_FILTER has been locked\r\n");
   40538:	01000174 	movhi	r4,5
   4053c:	21159104 	addi	r4,r4,22084
   40540:	0043ffc0 	call	43ffc <puts>
		return true;
   40544:	00800044 	movi	r2,1
   40548:	00000106 	br	40550 <hdmi_DE_REGEN_FILTER_STATUS+0x5c>
	}else{
		return false;
   4054c:	0005883a 	mov	r2,zero
	}
}
   40550:	e037883a 	mov	sp,fp
   40554:	dfc00117 	ldw	ra,4(sp)
   40558:	df000017 	ldw	fp,0(sp)
   4055c:	dec00204 	addi	sp,sp,8
   40560:	f800283a 	ret

00040564 <hdmi_read_video_statue>:


bool  hdmi_read_video_statue(void)
{
   40564:	defffb04 	addi	sp,sp,-20
   40568:	dfc00415 	stw	ra,16(sp)
   4056c:	df000315 	stw	fp,12(sp)
   40570:	df000304 	addi	fp,sp,12
	bool bPass;
	alt_u8 value1,value2;
	alt_16 data;
	bPass=hdmi_DE_REGEN_FILTER_STATUS();
   40574:	00404f40 	call	404f4 <hdmi_DE_REGEN_FILTER_STATUS>
   40578:	e0bffe05 	stb	r2,-8(fp)
	if(bPass==false)
   4057c:	e0bffe03 	ldbu	r2,-8(fp)
   40580:	1080005c 	xori	r2,r2,1
   40584:	10803fcc 	andi	r2,r2,255
   40588:	10000526 	beq	r2,zero,405a0 <hdmi_read_video_statue+0x3c>
	{
		printf("hdmi status error\r\n" );
   4058c:	01000174 	movhi	r4,5
   40590:	21159a04 	addi	r4,r4,22120
   40594:	0043ffc0 	call	43ffc <puts>
		return false;
   40598:	0005883a 	mov	r2,zero
   4059c:	00002506 	br	40634 <hdmi_read_video_statue+0xd0>
	}else{
		I2C_Read(I2C_SCL_BASE ,I2C_SDA_BASE , 0x68 ,0x1E ,&value1);
   405a0:	e0bfff04 	addi	r2,fp,-4
   405a4:	d8800015 	stw	r2,0(sp)
   405a8:	01c00784 	movi	r7,30
   405ac:	01801a04 	movi	r6,104
   405b0:	01400234 	movhi	r5,8
   405b4:	29442004 	addi	r5,r5,4224
   405b8:	01000234 	movhi	r4,8
   405bc:	21042404 	addi	r4,r4,4240
   405c0:	0041e4c0 	call	41e4c <I2C_Read>
		usleep(1000);
   405c4:	0100fa04 	movi	r4,1000
   405c8:	00536c00 	call	536c0 <usleep>
		I2C_Read(I2C_SCL_BASE ,I2C_SDA_BASE , 0x68 ,0x1F ,&value2);
   405cc:	e0bfff44 	addi	r2,fp,-3
   405d0:	d8800015 	stw	r2,0(sp)
   405d4:	01c007c4 	movi	r7,31
   405d8:	01801a04 	movi	r6,104
   405dc:	01400234 	movhi	r5,8
   405e0:	29442004 	addi	r5,r5,4224
   405e4:	01000234 	movhi	r4,8
   405e8:	21042404 	addi	r4,r4,4240
   405ec:	0041e4c0 	call	41e4c <I2C_Read>
		usleep(1000);
   405f0:	0100fa04 	movi	r4,1000
   405f4:	00536c00 	call	536c0 <usleep>
		data=(value1&0x3f)<<8|value2;
   405f8:	e0bfff03 	ldbu	r2,-4(fp)
   405fc:	10803fcc 	andi	r2,r2,255
   40600:	10800fcc 	andi	r2,r2,63
   40604:	1004923a 	slli	r2,r2,8
   40608:	1007883a 	mov	r3,r2
   4060c:	e0bfff43 	ldbu	r2,-3(fp)
   40610:	10803fcc 	andi	r2,r2,255
   40614:	1884b03a 	or	r2,r3,r2
   40618:	e0bffe8d 	sth	r2,-6(fp)
		printf("total line data %d\r\n",data);
   4061c:	e0bffe8f 	ldh	r2,-6(fp)
   40620:	100b883a 	mov	r5,r2
   40624:	01000174 	movhi	r4,5
   40628:	21159f04 	addi	r4,r4,22140
   4062c:	0043f000 	call	43f00 <printf>
		return true;
   40630:	00800044 	movi	r2,1
	}
}
   40634:	e037883a 	mov	sp,fp
   40638:	dfc00117 	ldw	ra,4(sp)
   4063c:	df000017 	ldw	fp,0(sp)
   40640:	dec00204 	addi	sp,sp,8
   40644:	f800283a 	ret

00040648 <hdmi_port_enable>:

#define PORT_A  0x01
#define PORT_B  0x02
void  hdmi_port_enable(int port_number)
{
   40648:	defffb04 	addi	sp,sp,-20
   4064c:	dfc00415 	stw	ra,16(sp)
   40650:	df000315 	stw	fp,12(sp)
   40654:	df000304 	addi	fp,sp,12
   40658:	e13fff15 	stw	r4,-4(fp)
	alt_u8  value;
	if(port_number==PORT_A)
   4065c:	e0bfff17 	ldw	r2,-4(fp)
   40660:	10800058 	cmpnei	r2,r2,1
   40664:	1000021e 	bne	r2,zero,40670 <hdmi_port_enable+0x28>
		value=0x00;
   40668:	e03ffe05 	stb	zero,-8(fp)
   4066c:	00000706 	br	4068c <hdmi_port_enable+0x44>
	else  if(port_number==PORT_B)
   40670:	e0bfff17 	ldw	r2,-4(fp)
   40674:	10800098 	cmpnei	r2,r2,2
   40678:	1000031e 	bne	r2,zero,40688 <hdmi_port_enable+0x40>
		value=0x01;
   4067c:	00800044 	movi	r2,1
   40680:	e0bffe05 	stb	r2,-8(fp)
   40684:	00000106 	br	4068c <hdmi_port_enable+0x44>
	else
		value=0x00;
   40688:	e03ffe05 	stb	zero,-8(fp)
	I2C_Write(I2C_SCL_BASE ,I2C_SDA_BASE , 0x68 ,0x00 ,value);
   4068c:	e0bffe03 	ldbu	r2,-8(fp)
   40690:	d8800015 	stw	r2,0(sp)
   40694:	000f883a 	mov	r7,zero
   40698:	01801a04 	movi	r6,104
   4069c:	01400234 	movhi	r5,8
   406a0:	29442004 	addi	r5,r5,4224
   406a4:	01000234 	movhi	r4,8
   406a8:	21042404 	addi	r4,r4,4240
   406ac:	0041d380 	call	41d38 <I2C_Write>
}
   406b0:	0001883a 	nop
   406b4:	e037883a 	mov	sp,fp
   406b8:	dfc00117 	ldw	ra,4(sp)
   406bc:	df000017 	ldw	fp,0(sp)
   406c0:	dec00204 	addi	sp,sp,8
   406c4:	f800283a 	ret

000406c8 <hdmi_port_detect_st_cl>:

void  hdmi_port_detect_st_cl(int port_number)
{
   406c8:	defffb04 	addi	sp,sp,-20
   406cc:	dfc00415 	stw	ra,16(sp)
   406d0:	df000315 	stw	fp,12(sp)
   406d4:	df000304 	addi	fp,sp,12
   406d8:	e13fff15 	stw	r4,-4(fp)
	    alt_u8  value;
		value=0x01;
   406dc:	00800044 	movi	r2,1
   406e0:	e0bffe05 	stb	r2,-8(fp)
		I2C_Write(I2C_SCL_BASE ,I2C_SDA_BASE , 0x98 ,0x71 ,value);
   406e4:	e0bffe03 	ldbu	r2,-8(fp)
   406e8:	d8800015 	stw	r2,0(sp)
   406ec:	01c01c44 	movi	r7,113
   406f0:	01bfe604 	movi	r6,-104
   406f4:	01400234 	movhi	r5,8
   406f8:	29442004 	addi	r5,r5,4224
   406fc:	01000234 	movhi	r4,8
   40700:	21042404 	addi	r4,r4,4240
   40704:	0041d380 	call	41d38 <I2C_Write>

		value=0x80;
   40708:	00bfe004 	movi	r2,-128
   4070c:	e0bffe05 	stb	r2,-8(fp)
		I2C_Write(I2C_SCL_BASE ,I2C_SDA_BASE , 0x98 ,0x6c ,value);
   40710:	e0bffe03 	ldbu	r2,-8(fp)
   40714:	d8800015 	stw	r2,0(sp)
   40718:	01c01b04 	movi	r7,108
   4071c:	01bfe604 	movi	r6,-104
   40720:	01400234 	movhi	r5,8
   40724:	29442004 	addi	r5,r5,4224
   40728:	01000234 	movhi	r4,8
   4072c:	21042404 	addi	r4,r4,4240
   40730:	0041d380 	call	41d38 <I2C_Write>
		return;
   40734:	0001883a 	nop

}
   40738:	e037883a 	mov	sp,fp
   4073c:	dfc00117 	ldw	ra,4(sp)
   40740:	df000017 	ldw	fp,0(sp)
   40744:	dec00204 	addi	sp,sp,8
   40748:	f800283a 	ret

0004074c <hdmi_port_detect_st_raw>:


alt_u8  hdmi_port_detect_st_raw( )
{
   4074c:	defffc04 	addi	sp,sp,-16
   40750:	dfc00315 	stw	ra,12(sp)
   40754:	df000215 	stw	fp,8(sp)
   40758:	df000204 	addi	fp,sp,8
	alt_u8  value=0x00,value1,value2;
   4075c:	e03fff05 	stb	zero,-4(fp)
	I2C_Read(I2C_SCL_BASE ,I2C_SDA_BASE , 0x98, 0x6a, &value1);
   40760:	e0bfff44 	addi	r2,fp,-3
   40764:	d8800015 	stw	r2,0(sp)
   40768:	01c01a84 	movi	r7,106
   4076c:	01bfe604 	movi	r6,-104
   40770:	01400234 	movhi	r5,8
   40774:	29442004 	addi	r5,r5,4224
   40778:	01000234 	movhi	r4,8
   4077c:	21042404 	addi	r4,r4,4240
   40780:	0041e4c0 	call	41e4c <I2C_Read>
	if(value1&0x80)
   40784:	e0bfff43 	ldbu	r2,-3(fp)
   40788:	10803fcc 	andi	r2,r2,255
   4078c:	1080201c 	xori	r2,r2,128
   40790:	10bfe004 	addi	r2,r2,-128
   40794:	1000020e 	bge	r2,zero,407a0 <hdmi_port_detect_st_raw+0x54>
		value=PORT_B;
   40798:	00800084 	movi	r2,2
   4079c:	e0bfff05 	stb	r2,-4(fp)
	I2C_Read(I2C_SCL_BASE ,I2C_SDA_BASE , 0x98, 0x6f, &value2);
   407a0:	e0bfff84 	addi	r2,fp,-2
   407a4:	d8800015 	stw	r2,0(sp)
   407a8:	01c01bc4 	movi	r7,111
   407ac:	01bfe604 	movi	r6,-104
   407b0:	01400234 	movhi	r5,8
   407b4:	29442004 	addi	r5,r5,4224
   407b8:	01000234 	movhi	r4,8
   407bc:	21042404 	addi	r4,r4,4240
   407c0:	0041e4c0 	call	41e4c <I2C_Read>
	if(value2&0x01)
   407c4:	e0bfff83 	ldbu	r2,-2(fp)
   407c8:	10803fcc 	andi	r2,r2,255
   407cc:	1080004c 	andi	r2,r2,1
   407d0:	10000226 	beq	r2,zero,407dc <hdmi_port_detect_st_raw+0x90>
		value=PORT_A;
   407d4:	00800044 	movi	r2,1
   407d8:	e0bfff05 	stb	r2,-4(fp)
    return value;
   407dc:	e0bfff03 	ldbu	r2,-4(fp)

}
   407e0:	e037883a 	mov	sp,fp
   407e4:	dfc00117 	ldw	ra,4(sp)
   407e8:	df000017 	ldw	fp,0(sp)
   407ec:	dec00204 	addi	sp,sp,8
   407f0:	f800283a 	ret

000407f4 <hdmi_isr>:


static void hdmi_isr(void* context){
   407f4:	defffc04 	addi	sp,sp,-16
   407f8:	dfc00315 	stw	ra,12(sp)
   407fc:	df000215 	stw	fp,8(sp)
   40800:	df000204 	addi	fp,sp,8
   40804:	e13fff15 	stw	r4,-4(fp)
  //  alt_u32 ActiveMask,i,Mask=0x01, nIndex=0;
		alt_u8 port_number;
        if ((alt_u32)context == ADV7619_INT_BASE){
   40808:	e0ffff17 	ldw	r3,-4(fp)
   4080c:	00800234 	movhi	r2,8
   40810:	10841004 	addi	r2,r2,4160
   40814:	18800c1e 	bne	r3,r2,40848 <hdmi_isr+0x54>
        	port_number=hdmi_port_detect_st_raw();
   40818:	004074c0 	call	4074c <hdmi_port_detect_st_raw>
   4081c:	e0bffe05 	stb	r2,-8(fp)
        hdmi_port_enable(port_number);
   40820:	e0bffe03 	ldbu	r2,-8(fp)
   40824:	1009883a 	mov	r4,r2
   40828:	00406480 	call	40648 <hdmi_port_enable>
        hdmi_port_detect_st_cl(port_number);
   4082c:	e0bffe03 	ldbu	r2,-8(fp)
   40830:	1009883a 	mov	r4,r2
   40834:	00406c80 	call	406c8 <hdmi_port_detect_st_cl>
        IOWR_ALTERA_AVALON_PIO_EDGE_CAP(ADV7619_INT_BASE,0);
   40838:	0007883a 	mov	r3,zero
   4083c:	00800234 	movhi	r2,8
   40840:	10841304 	addi	r2,r2,4172
   40844:	10c00035 	stwio	r3,0(r2)
    }
}
   40848:	0001883a 	nop
   4084c:	e037883a 	mov	sp,fp
   40850:	dfc00117 	ldw	ra,4(sp)
   40854:	df000017 	ldw	fp,0(sp)
   40858:	dec00204 	addi	sp,sp,8
   4085c:	f800283a 	ret

00040860 <hdmi_interrupt_init>:


void hdmi_interrupt_init(void)
{
   40860:	defffc04 	addi	sp,sp,-16
   40864:	dfc00315 	stw	ra,12(sp)
   40868:	df000215 	stw	fp,8(sp)
   4086c:	df000204 	addi	fp,sp,8
	int error;
	IOWR_ALTERA_AVALON_PIO_IRQ_MASK(ADV7619_INT_BASE, 0x00);
   40870:	0007883a 	mov	r3,zero
   40874:	00800234 	movhi	r2,8
   40878:	10841204 	addi	r2,r2,4168
   4087c:	10c00035 	stwio	r3,0(r2)

    // clear capture flag
    IOWR_ALTERA_AVALON_PIO_EDGE_CAP(ADV7619_INT_BASE,0);
   40880:	0007883a 	mov	r3,zero
   40884:	00800234 	movhi	r2,8
   40888:	10841304 	addi	r2,r2,4172
   4088c:	10c00035 	stwio	r3,0(r2)

    error = alt_ic_isr_register (ADV7619_INT_IRQ_INTERRUPT_CONTROLLER_ID, ADV7619_INT_IRQ, hdmi_isr, ADV7619_INT_BASE, NULL);
   40890:	d8000015 	stw	zero,0(sp)
   40894:	01c00234 	movhi	r7,8
   40898:	39c41004 	addi	r7,r7,4160
   4089c:	01800134 	movhi	r6,4
   408a0:	3181fd04 	addi	r6,r6,2036
   408a4:	01400184 	movi	r5,6
   408a8:	0009883a 	mov	r4,zero
   408ac:	0052e340 	call	52e34 <alt_ic_isr_register>
   408b0:	e0bfff15 	stw	r2,-4(fp)
    if (error){
   408b4:	e0bfff17 	ldw	r2,-4(fp)
   408b8:	10000326 	beq	r2,zero,408c8 <hdmi_interrupt_init+0x68>
                printf("alt_ic_isr_register failed!\r\n");
   408bc:	01000174 	movhi	r4,5
   408c0:	2115a504 	addi	r4,r4,22164
   408c4:	0043ffc0 	call	43ffc <puts>
    }
    IOWR_ALTERA_AVALON_PIO_IRQ_MASK(ADV7619_INT_BASE, 0x01);
   408c8:	00c00044 	movi	r3,1
   408cc:	00800234 	movhi	r2,8
   408d0:	10841204 	addi	r2,r2,4168
   408d4:	10c00035 	stwio	r3,0(r2)
}
   408d8:	0001883a 	nop
   408dc:	e037883a 	mov	sp,fp
   408e0:	dfc00117 	ldw	ra,4(sp)
   408e4:	df000017 	ldw	fp,0(sp)
   408e8:	dec00204 	addi	sp,sp,8
   408ec:	f800283a 	ret

000408f0 <HDMI_TX_ReadI2C_ByteN_0>:
#include "HDMI_TX.h"
#include "I2C.h"


bool HDMI_TX_ReadI2C_ByteN_0(alt_u8 RegAddr, alt_u8 *pData,int N)
{
   408f0:	defff804 	addi	sp,sp,-32
   408f4:	dfc00715 	stw	ra,28(sp)
   408f8:	df000615 	stw	fp,24(sp)
   408fc:	df000604 	addi	fp,sp,24
   40900:	2005883a 	mov	r2,r4
   40904:	e17ffe15 	stw	r5,-8(fp)
   40908:	e1bfff15 	stw	r6,-4(fp)
   4090c:	e0bffd05 	stb	r2,-12(fp)
	bool bSuccess = true;
   40910:	00800044 	movi	r2,1
   40914:	e0bffb05 	stb	r2,-20(fp)
	int i;
    for(i=0;i<N && bSuccess;i++){
   40918:	e03ffc15 	stw	zero,-16(fp)
   4091c:	00001406 	br	40970 <HDMI_TX_ReadI2C_ByteN_0+0x80>
        bSuccess = I2C_Read(HDMI_TX_FMC_I2C_SCL_BASE, HDMI_TX_FMC_I2C_SDA_BASE, HDMI_TX_I2C_SLAVE_ADDR_0, RegAddr+i,(alt_u8 *)(pData+i));
   40920:	e0bffc17 	ldw	r2,-16(fp)
   40924:	1007883a 	mov	r3,r2
   40928:	e0bffd03 	ldbu	r2,-12(fp)
   4092c:	1885883a 	add	r2,r3,r2
   40930:	11003fcc 	andi	r4,r2,255
   40934:	e0bffc17 	ldw	r2,-16(fp)
   40938:	e0fffe17 	ldw	r3,-8(fp)
   4093c:	1885883a 	add	r2,r3,r2
   40940:	d8800015 	stw	r2,0(sp)
   40944:	200f883a 	mov	r7,r4
   40948:	01801c84 	movi	r6,114
   4094c:	01400234 	movhi	r5,8
   40950:	29443804 	addi	r5,r5,4320
   40954:	01000234 	movhi	r4,8
   40958:	21043404 	addi	r4,r4,4304
   4095c:	0041e4c0 	call	41e4c <I2C_Read>
   40960:	e0bffb05 	stb	r2,-20(fp)

bool HDMI_TX_ReadI2C_ByteN_0(alt_u8 RegAddr, alt_u8 *pData,int N)
{
	bool bSuccess = true;
	int i;
    for(i=0;i<N && bSuccess;i++){
   40964:	e0bffc17 	ldw	r2,-16(fp)
   40968:	10800044 	addi	r2,r2,1
   4096c:	e0bffc15 	stw	r2,-16(fp)
   40970:	e0fffc17 	ldw	r3,-16(fp)
   40974:	e0bfff17 	ldw	r2,-4(fp)
   40978:	1880020e 	bge	r3,r2,40984 <HDMI_TX_ReadI2C_ByteN_0+0x94>
   4097c:	e0bffb03 	ldbu	r2,-20(fp)
   40980:	103fe71e 	bne	r2,zero,40920 <__alt_data_end+0xfffc2120>
        bSuccess = I2C_Read(HDMI_TX_FMC_I2C_SCL_BASE, HDMI_TX_FMC_I2C_SDA_BASE, HDMI_TX_I2C_SLAVE_ADDR_0, RegAddr+i,(alt_u8 *)(pData+i));
        //printf("==========> Read HDMI-TX Reg[%02Xh]=%02Xh\n", RegAddr+i, *(alt_u8 *)(pData+i));
        //usleep(50); // wait
    }
    return bSuccess;
   40984:	e0bffb03 	ldbu	r2,-20(fp)
}
   40988:	e037883a 	mov	sp,fp
   4098c:	dfc00117 	ldw	ra,4(sp)
   40990:	df000017 	ldw	fp,0(sp)
   40994:	dec00204 	addi	sp,sp,8
   40998:	f800283a 	ret

0004099c <HDMI_TX_WriteI2C_ByteN_0>:


bool HDMI_TX_WriteI2C_ByteN_0(alt_u8 RegAddr, alt_u8 *pData,int N)
{
   4099c:	defff804 	addi	sp,sp,-32
   409a0:	dfc00715 	stw	ra,28(sp)
   409a4:	df000615 	stw	fp,24(sp)
   409a8:	df000604 	addi	fp,sp,24
   409ac:	2005883a 	mov	r2,r4
   409b0:	e17ffe15 	stw	r5,-8(fp)
   409b4:	e1bfff15 	stw	r6,-4(fp)
   409b8:	e0bffd05 	stb	r2,-12(fp)
	bool bSuccess = true;
   409bc:	00800044 	movi	r2,1
   409c0:	e0bffb05 	stb	r2,-20(fp)
	int i;
    for(i=0;i<N && bSuccess;i++){
   409c4:	e03ffc15 	stw	zero,-16(fp)
   409c8:	00001606 	br	40a24 <HDMI_TX_WriteI2C_ByteN_0+0x88>
        //printf("==========> Write HDMI-TX Reg[%02Xh]=%02Xh\n", RegAddr+i, *(pData+i));
        bSuccess = I2C_Write(HDMI_TX_FMC_I2C_SCL_BASE, HDMI_TX_FMC_I2C_SDA_BASE, HDMI_TX_I2C_SLAVE_ADDR_0, RegAddr+i, *(pData+i));
   409cc:	e0bffc17 	ldw	r2,-16(fp)
   409d0:	1007883a 	mov	r3,r2
   409d4:	e0bffd03 	ldbu	r2,-12(fp)
   409d8:	1885883a 	add	r2,r3,r2
   409dc:	11003fcc 	andi	r4,r2,255
   409e0:	e0bffc17 	ldw	r2,-16(fp)
   409e4:	e0fffe17 	ldw	r3,-8(fp)
   409e8:	1885883a 	add	r2,r3,r2
   409ec:	10800003 	ldbu	r2,0(r2)
   409f0:	10803fcc 	andi	r2,r2,255
   409f4:	d8800015 	stw	r2,0(sp)
   409f8:	200f883a 	mov	r7,r4
   409fc:	01801c84 	movi	r6,114
   40a00:	01400234 	movhi	r5,8
   40a04:	29443804 	addi	r5,r5,4320
   40a08:	01000234 	movhi	r4,8
   40a0c:	21043404 	addi	r4,r4,4304
   40a10:	0041d380 	call	41d38 <I2C_Write>
   40a14:	e0bffb05 	stb	r2,-20(fp)

bool HDMI_TX_WriteI2C_ByteN_0(alt_u8 RegAddr, alt_u8 *pData,int N)
{
	bool bSuccess = true;
	int i;
    for(i=0;i<N && bSuccess;i++){
   40a18:	e0bffc17 	ldw	r2,-16(fp)
   40a1c:	10800044 	addi	r2,r2,1
   40a20:	e0bffc15 	stw	r2,-16(fp)
   40a24:	e0fffc17 	ldw	r3,-16(fp)
   40a28:	e0bfff17 	ldw	r2,-4(fp)
   40a2c:	1880020e 	bge	r3,r2,40a38 <HDMI_TX_WriteI2C_ByteN_0+0x9c>
   40a30:	e0bffb03 	ldbu	r2,-20(fp)
   40a34:	103fe51e 	bne	r2,zero,409cc <__alt_data_end+0xfffc21cc>
        //printf("==========> Write HDMI-TX Reg[%02Xh]=%02Xh\n", RegAddr+i, *(pData+i));
        bSuccess = I2C_Write(HDMI_TX_FMC_I2C_SCL_BASE, HDMI_TX_FMC_I2C_SDA_BASE, HDMI_TX_I2C_SLAVE_ADDR_0, RegAddr+i, *(pData+i));
    }
    return bSuccess;
   40a38:	e0bffb03 	ldbu	r2,-20(fp)
}
   40a3c:	e037883a 	mov	sp,fp
   40a40:	dfc00117 	ldw	ra,4(sp)
   40a44:	df000017 	ldw	fp,0(sp)
   40a48:	dec00204 	addi	sp,sp,8
   40a4c:	f800283a 	ret

00040a50 <HDMI_TX_ReadI2C_Byte_0>:


int HDMI_TX_ReadI2C_Byte_0(alt_u8 RegAddr)
{
   40a50:	defffc04 	addi	sp,sp,-16
   40a54:	dfc00315 	stw	ra,12(sp)
   40a58:	df000215 	stw	fp,8(sp)
   40a5c:	df000204 	addi	fp,sp,8
   40a60:	2005883a 	mov	r2,r4
   40a64:	e0bfff05 	stb	r2,-4(fp)
	//return I2C_Read_Byte(HDMI_TX_I2C_SLAVE_ADDR,RegAddr) ;
	alt_u8 Value;
    HDMI_TX_ReadI2C_ByteN_0(RegAddr, &Value, 1);
   40a68:	e0bfff03 	ldbu	r2,-4(fp)
   40a6c:	01800044 	movi	r6,1
   40a70:	e17ffe04 	addi	r5,fp,-8
   40a74:	1009883a 	mov	r4,r2
   40a78:	00408f00 	call	408f0 <HDMI_TX_ReadI2C_ByteN_0>
    return Value;
   40a7c:	e0bffe03 	ldbu	r2,-8(fp)
   40a80:	10803fcc 	andi	r2,r2,255
}
   40a84:	e037883a 	mov	sp,fp
   40a88:	dfc00117 	ldw	ra,4(sp)
   40a8c:	df000017 	ldw	fp,0(sp)
   40a90:	dec00204 	addi	sp,sp,8
   40a94:	f800283a 	ret

00040a98 <HDMI_TX_WriteI2C_Byte_0>:
int HDMI_TX_WriteI2C_Byte_0(alt_u8 RegAddr,alt_u8 Data)
{
   40a98:	defffc04 	addi	sp,sp,-16
   40a9c:	dfc00315 	stw	ra,12(sp)
   40aa0:	df000215 	stw	fp,8(sp)
   40aa4:	df000204 	addi	fp,sp,8
   40aa8:	2007883a 	mov	r3,r4
   40aac:	2805883a 	mov	r2,r5
   40ab0:	e0fffe05 	stb	r3,-8(fp)
   40ab4:	e0bfff05 	stb	r2,-4(fp)

    return HDMI_TX_WriteI2C_ByteN_0(RegAddr, &Data, 1);
   40ab8:	e0bffe03 	ldbu	r2,-8(fp)
   40abc:	e0ffff04 	addi	r3,fp,-4
   40ac0:	01800044 	movi	r6,1
   40ac4:	180b883a 	mov	r5,r3
   40ac8:	1009883a 	mov	r4,r2
   40acc:	004099c0 	call	4099c <HDMI_TX_WriteI2C_ByteN_0>
   40ad0:	10803fcc 	andi	r2,r2,255
}
   40ad4:	e037883a 	mov	sp,fp
   40ad8:	dfc00117 	ldw	ra,4(sp)
   40adc:	df000017 	ldw	fp,0(sp)
   40ae0:	dec00204 	addi	sp,sp,8
   40ae4:	f800283a 	ret

00040ae8 <HDMI_TX_TPI_Mode_Enable>:


bool HDMI_TX_TPI_Mode_Enable(void){
   40ae8:	defffd04 	addi	sp,sp,-12
   40aec:	dfc00215 	stw	ra,8(sp)
   40af0:	df000115 	stw	fp,4(sp)
   40af4:	df000104 	addi	fp,sp,4
    bool bSuccess = false;
   40af8:	e03fff05 	stb	zero,-4(fp)
    bSuccess=HDMI_TX_WriteI2C_Byte_0(0xC7, 0x00);
   40afc:	000b883a 	mov	r5,zero
   40b00:	010031c4 	movi	r4,199
   40b04:	0040a980 	call	40a98 <HDMI_TX_WriteI2C_Byte_0>
   40b08:	1004c03a 	cmpne	r2,r2,zero
   40b0c:	e0bfff05 	stb	r2,-4(fp)
    usleep(30*1000);
   40b10:	011d4c04 	movi	r4,30000
   40b14:	00536c00 	call	536c0 <usleep>
   // bSuccess=HDMI_TX_WriteI2C_Byte_0(0xC7, 0x80);
    if (bSuccess){
   40b18:	e0bfff03 	ldbu	r2,-4(fp)
   40b1c:	10000426 	beq	r2,zero,40b30 <HDMI_TX_TPI_Mode_Enable+0x48>
        printf("HDMI TX TPI Mode Enable success\r\n");
   40b20:	01000174 	movhi	r4,5
   40b24:	2115ad04 	addi	r4,r4,22196
   40b28:	0043ffc0 	call	43ffc <puts>
   40b2c:	00000306 	br	40b3c <HDMI_TX_TPI_Mode_Enable+0x54>
    }else{
        printf("HDMI TX TPI Mode Enable failed\r\n");
   40b30:	01000174 	movhi	r4,5
   40b34:	2115b604 	addi	r4,r4,22232
   40b38:	0043ffc0 	call	43ffc <puts>
    }
    return bSuccess;
   40b3c:	e0bfff03 	ldbu	r2,-4(fp)
}
   40b40:	e037883a 	mov	sp,fp
   40b44:	dfc00117 	ldw	ra,4(sp)
   40b48:	df000017 	ldw	fp,0(sp)
   40b4c:	dec00204 	addi	sp,sp,8
   40b50:	f800283a 	ret

00040b54 <HDMI_TX_Reset>:


void HDMI_TX_Reset(void){
   40b54:	defffe04 	addi	sp,sp,-8
   40b58:	dfc00115 	stw	ra,4(sp)
   40b5c:	df000015 	stw	fp,0(sp)
   40b60:	d839883a 	mov	fp,sp
	printf("TX hardware Reset\n");
   40b64:	01000174 	movhi	r4,5
   40b68:	2115be04 	addi	r4,r4,22264
   40b6c:	0043ffc0 	call	43ffc <puts>
    IOWR(SII9136_RST_N_BASE, 0, 1);
   40b70:	00c00044 	movi	r3,1
   40b74:	00800234 	movhi	r2,8
   40b78:	10842c04 	addi	r2,r2,4272
   40b7c:	10c00035 	stwio	r3,0(r2)
    usleep(20*1000);
   40b80:	01138804 	movi	r4,20000
   40b84:	00536c00 	call	536c0 <usleep>
    IOWR(SII9136_RST_N_BASE, 0, 0);
   40b88:	0007883a 	mov	r3,zero
   40b8c:	00800234 	movhi	r2,8
   40b90:	10842c04 	addi	r2,r2,4272
   40b94:	10c00035 	stwio	r3,0(r2)
    usleep(20*1000);
   40b98:	01138804 	movi	r4,20000
   40b9c:	00536c00 	call	536c0 <usleep>
    IOWR(SII9136_RST_N_BASE, 0, 1);
   40ba0:	00c00044 	movi	r3,1
   40ba4:	00800234 	movhi	r2,8
   40ba8:	10842c04 	addi	r2,r2,4272
   40bac:	10c00035 	stwio	r3,0(r2)
    usleep(200*1000);
   40bb0:	010000f4 	movhi	r4,3
   40bb4:	21035004 	addi	r4,r4,3392
   40bb8:	00536c00 	call	536c0 <usleep>
    //I2C_Write(HDMI_FMC_I2C_SCL_BASE, HDMI_FMC_I2C_SDA_BASE, HDMI_TX_I2C_SLAVE_ADDR_0, 0xc7, 0x00);
    HDMI_TX_TPI_Mode_Enable();
   40bbc:	0040ae80 	call	40ae8 <HDMI_TX_TPI_Mode_Enable>
    usleep(500*1000);
   40bc0:	01000234 	movhi	r4,8
   40bc4:	21284804 	addi	r4,r4,-24288
   40bc8:	00536c00 	call	536c0 <usleep>
}
   40bcc:	0001883a 	nop
   40bd0:	e037883a 	mov	sp,fp
   40bd4:	dfc00117 	ldw	ra,4(sp)
   40bd8:	df000017 	ldw	fp,0(sp)
   40bdc:	dec00204 	addi	sp,sp,8
   40be0:	f800283a 	ret

00040be4 <HDMI_TX_ChipVerify>:

bool HDMI_TX_ChipVerify(void){
   40be4:	defffb04 	addi	sp,sp,-20
   40be8:	dfc00415 	stw	ra,16(sp)
   40bec:	df000315 	stw	fp,12(sp)
   40bf0:	df000304 	addi	fp,sp,12
    bool bPass = false;
   40bf4:	e03ffd05 	stb	zero,-12(fp)
    alt_u8 szID[3];
    int i;
    for(i=0;i<3;i++){
   40bf8:	e03ffe15 	stw	zero,-8(fp)
   40bfc:	00001706 	br	40c5c <HDMI_TX_ChipVerify+0x78>
    	//I2C_Read(HDMI_FMC_I2C_SCL_BASE, HDMI_FMC_I2C_SDA_BASE, HDMI_TX_I2C_SLAVE_ADDR_0, 0x1b+i,&szID[i]);
    	szID[i]=HDMI_TX_ReadI2C_Byte_0(i+0x1b);
   40c00:	e0bffe17 	ldw	r2,-8(fp)
   40c04:	108006c4 	addi	r2,r2,27
   40c08:	10803fcc 	andi	r2,r2,255
   40c0c:	1009883a 	mov	r4,r2
   40c10:	0040a500 	call	40a50 <HDMI_TX_ReadI2C_Byte_0>
   40c14:	1009883a 	mov	r4,r2
   40c18:	e0ffff04 	addi	r3,fp,-4
   40c1c:	e0bffe17 	ldw	r2,-8(fp)
   40c20:	1885883a 	add	r2,r3,r2
   40c24:	11000005 	stb	r4,0(r2)
        printf("szID[%d]= %x\n",i, szID[i]);}
   40c28:	e0ffff04 	addi	r3,fp,-4
   40c2c:	e0bffe17 	ldw	r2,-8(fp)
   40c30:	1885883a 	add	r2,r3,r2
   40c34:	10800003 	ldbu	r2,0(r2)
   40c38:	10803fcc 	andi	r2,r2,255
   40c3c:	100d883a 	mov	r6,r2
   40c40:	e17ffe17 	ldw	r5,-8(fp)
   40c44:	01000174 	movhi	r4,5
   40c48:	2115c304 	addi	r4,r4,22284
   40c4c:	0043f000 	call	43f00 <printf>

bool HDMI_TX_ChipVerify(void){
    bool bPass = false;
    alt_u8 szID[3];
    int i;
    for(i=0;i<3;i++){
   40c50:	e0bffe17 	ldw	r2,-8(fp)
   40c54:	10800044 	addi	r2,r2,1
   40c58:	e0bffe15 	stw	r2,-8(fp)
   40c5c:	e0bffe17 	ldw	r2,-8(fp)
   40c60:	108000d0 	cmplti	r2,r2,3
   40c64:	103fe61e 	bne	r2,zero,40c00 <__alt_data_end+0xfffc2400>
    	//I2C_Read(HDMI_FMC_I2C_SCL_BASE, HDMI_FMC_I2C_SDA_BASE, HDMI_TX_I2C_SLAVE_ADDR_0, 0x1b+i,&szID[i]);
    	szID[i]=HDMI_TX_ReadI2C_Byte_0(i+0x1b);
        printf("szID[%d]= %x\n",i, szID[i]);}
       // szID[i] = HDMITX_ReadI2C_Byte(i+0x1b);

    if ((szID[0]==0xB4 && szID[1] == 0x20 && szID[2] == 0x30)){
   40c68:	e0bfff03 	ldbu	r2,-4(fp)
   40c6c:	10803fcc 	andi	r2,r2,255
   40c70:	10802d18 	cmpnei	r2,r2,180
   40c74:	1000171e 	bne	r2,zero,40cd4 <HDMI_TX_ChipVerify+0xf0>
   40c78:	e0bfff43 	ldbu	r2,-3(fp)
   40c7c:	10803fcc 	andi	r2,r2,255
   40c80:	10800818 	cmpnei	r2,r2,32
   40c84:	1000131e 	bne	r2,zero,40cd4 <HDMI_TX_ChipVerify+0xf0>
   40c88:	e0bfff83 	ldbu	r2,-2(fp)
   40c8c:	10803fcc 	andi	r2,r2,255
   40c90:	10800c18 	cmpnei	r2,r2,48
   40c94:	10000f1e 	bne	r2,zero,40cd4 <HDMI_TX_ChipVerify+0xf0>
        bPass = true;
   40c98:	00800044 	movi	r2,1
   40c9c:	e0bffd05 	stb	r2,-12(fp)
        printf("TX Chip Device ID: %02X%02X%02Xh\n", szID[0], szID[1], szID[2]);
   40ca0:	e0bfff03 	ldbu	r2,-4(fp)
   40ca4:	10803fcc 	andi	r2,r2,255
   40ca8:	e0ffff43 	ldbu	r3,-3(fp)
   40cac:	18c03fcc 	andi	r3,r3,255
   40cb0:	e13fff83 	ldbu	r4,-2(fp)
   40cb4:	21003fcc 	andi	r4,r4,255
   40cb8:	200f883a 	mov	r7,r4
   40cbc:	180d883a 	mov	r6,r3
   40cc0:	100b883a 	mov	r5,r2
   40cc4:	01000174 	movhi	r4,5
   40cc8:	2115c704 	addi	r4,r4,22300
   40ccc:	0043f000 	call	43f00 <printf>
   40cd0:	00000c06 	br	40d04 <HDMI_TX_ChipVerify+0x120>
    }else{
        printf("NG, Read TX Chip ID:%02X%02X%02Xh (expected:B4C2030)\n", szID[0], szID[1], szID[2]);
   40cd4:	e0bfff03 	ldbu	r2,-4(fp)
   40cd8:	10803fcc 	andi	r2,r2,255
   40cdc:	e0ffff43 	ldbu	r3,-3(fp)
   40ce0:	18c03fcc 	andi	r3,r3,255
   40ce4:	e13fff83 	ldbu	r4,-2(fp)
   40ce8:	21003fcc 	andi	r4,r4,255
   40cec:	200f883a 	mov	r7,r4
   40cf0:	180d883a 	mov	r6,r3
   40cf4:	100b883a 	mov	r5,r2
   40cf8:	01000174 	movhi	r4,5
   40cfc:	2115d004 	addi	r4,r4,22336
   40d00:	0043f000 	call	43f00 <printf>
    }

    return bPass;
   40d04:	e0bffd03 	ldbu	r2,-12(fp)
}
   40d08:	e037883a 	mov	sp,fp
   40d0c:	dfc00117 	ldw	ra,4(sp)
   40d10:	df000017 	ldw	fp,0(sp)
   40d14:	dec00204 	addi	sp,sp,8
   40d18:	f800283a 	ret

00040d1c <InitSII9136>:





void InitSII9136(void){
   40d1c:	defffd04 	addi	sp,sp,-12
   40d20:	dfc00215 	stw	ra,8(sp)
   40d24:	df000115 	stw	fp,4(sp)
   40d28:	df000104 	addi	fp,sp,4
	alt_u8 STATUE;




		HDMI_TX_WriteI2C_Byte_0(0x1A, 0x11);	// disable TMDS output
   40d2c:	01400444 	movi	r5,17
   40d30:	01000684 	movi	r4,26
   40d34:	0040a980 	call	40a98 <HDMI_TX_WriteI2C_Byte_0>


		HDMI_TX_WriteI2C_Byte_0(0x09, 0x00);  //input 8-bit  RGB mode
   40d38:	000b883a 	mov	r5,zero
   40d3c:	01000244 	movi	r4,9
   40d40:	0040a980 	call	40a98 <HDMI_TX_WriteI2C_Byte_0>
		HDMI_TX_WriteI2C_Byte_0(0x1E, 0x00);    // Power up transmitter----Enter full-operation D0 state
   40d44:	000b883a 	mov	r5,zero
   40d48:	01000784 	movi	r4,30
   40d4c:	0040a980 	call	40a98 <HDMI_TX_WriteI2C_Byte_0>


		HDMI_TX_WriteI2C_Byte_0(0x09, 0x04);  //input 12-bit  RGB mode
   40d50:	01400104 	movi	r5,4
   40d54:	01000244 	movi	r4,9
   40d58:	0040a980 	call	40a98 <HDMI_TX_WriteI2C_Byte_0>
		HDMI_TX_WriteI2C_Byte_0(0x0A, 0x04);    //output 12-bit RGB
   40d5c:	01400104 	movi	r5,4
   40d60:	01000284 	movi	r4,10
   40d64:	0040a980 	call	40a98 <HDMI_TX_WriteI2C_Byte_0>

		HDMI_TX_WriteI2C_Byte_0(0xBC, 0x01);    //Set source termination
   40d68:	01400044 	movi	r5,1
   40d6c:	01002f04 	movi	r4,188
   40d70:	0040a980 	call	40a98 <HDMI_TX_WriteI2C_Byte_0>
	    HDMI_TX_WriteI2C_Byte_0(0xBD, 0x80);
   40d74:	01402004 	movi	r5,128
   40d78:	01002f44 	movi	r4,189
   40d7c:	0040a980 	call	40a98 <HDMI_TX_WriteI2C_Byte_0>
	    HDMI_TX_WriteI2C_Byte_0(0xBE, 0x24);
   40d80:	01400904 	movi	r5,36
   40d84:	01002f84 	movi	r4,190
   40d88:	0040a980 	call	40a98 <HDMI_TX_WriteI2C_Byte_0>

	    HDMI_TX_WriteI2C_Byte_0(0x19, 0x01);
   40d8c:	01400044 	movi	r5,1
   40d90:	01000644 	movi	r4,25
   40d94:	0040a980 	call	40a98 <HDMI_TX_WriteI2C_Byte_0>
	    HDMI_TX_WriteI2C_Byte_0(0x3C, 0x00);     // disable Interrupt
   40d98:	000b883a 	mov	r5,zero
   40d9c:	01000f04 	movi	r4,60
   40da0:	0040a980 	call	40a98 <HDMI_TX_WriteI2C_Byte_0>
	    HDMI_TX_WriteI2C_Byte_0(0x3D, 0xF3);     // clear Interrupt Status
   40da4:	01403cc4 	movi	r5,243
   40da8:	01000f44 	movi	r4,61
   40dac:	0040a980 	call	40a98 <HDMI_TX_WriteI2C_Byte_0>



	    //audio config
	    HDMI_TX_WriteI2C_Byte_0(0x26, 0x91);
   40db0:	01402444 	movi	r5,145
   40db4:	01000984 	movi	r4,38
   40db8:	0040a980 	call	40a98 <HDMI_TX_WriteI2C_Byte_0>
	    HDMI_TX_WriteI2C_Byte_0(0x25, 0x03);
   40dbc:	014000c4 	movi	r5,3
   40dc0:	01000944 	movi	r4,37
   40dc4:	0040a980 	call	40a98 <HDMI_TX_WriteI2C_Byte_0>
	    HDMI_TX_WriteI2C_Byte_0(0x27, 0x00);  //
   40dc8:	000b883a 	mov	r5,zero
   40dcc:	010009c4 	movi	r4,39
   40dd0:	0040a980 	call	40a98 <HDMI_TX_WriteI2C_Byte_0>
		HDMI_TX_WriteI2C_Byte_0(0x1f, 0x80);  //
   40dd4:	01402004 	movi	r5,128
   40dd8:	010007c4 	movi	r4,31
   40ddc:	0040a980 	call	40a98 <HDMI_TX_WriteI2C_Byte_0>
		HDMI_TX_WriteI2C_Byte_0(0x1f, 0x91);  //
   40de0:	01402444 	movi	r5,145
   40de4:	010007c4 	movi	r4,31
   40de8:	0040a980 	call	40a98 <HDMI_TX_WriteI2C_Byte_0>
	    HDMI_TX_WriteI2C_Byte_0(0x1f, 0xa2);  //
   40dec:	01402884 	movi	r5,162
   40df0:	010007c4 	movi	r4,31
   40df4:	0040a980 	call	40a98 <HDMI_TX_WriteI2C_Byte_0>
		HDMI_TX_WriteI2C_Byte_0(0x1f, 0xb3);  //
   40df8:	01402cc4 	movi	r5,179
   40dfc:	010007c4 	movi	r4,31
   40e00:	0040a980 	call	40a98 <HDMI_TX_WriteI2C_Byte_0>
		HDMI_TX_WriteI2C_Byte_0(0x20, 0xF0);  //
   40e04:	01403c04 	movi	r5,240
   40e08:	01000804 	movi	r4,32
   40e0c:	0040a980 	call	40a98 <HDMI_TX_WriteI2C_Byte_0>
		HDMI_TX_WriteI2C_Byte_0(0x26, 0x81);	// I2S
   40e10:	01402044 	movi	r5,129
   40e14:	01000984 	movi	r4,38
   40e18:	0040a980 	call	40a98 <HDMI_TX_WriteI2C_Byte_0>
		//audio config end

		HDMI_TX_WriteI2C_Byte_0(0xBC, 0x02);  //
   40e1c:	01400084 	movi	r5,2
   40e20:	01002f04 	movi	r4,188
   40e24:	0040a980 	call	40a98 <HDMI_TX_WriteI2C_Byte_0>
		HDMI_TX_WriteI2C_Byte_0(0xBD, 0x1D);  //
   40e28:	01400744 	movi	r5,29
   40e2c:	01002f44 	movi	r4,189
   40e30:	0040a980 	call	40a98 <HDMI_TX_WriteI2C_Byte_0>
		STATUE=HDMI_TX_ReadI2C_Byte_0(0xBE);
   40e34:	01002f84 	movi	r4,190
   40e38:	0040a500 	call	40a50 <HDMI_TX_ReadI2C_Byte_0>
   40e3c:	e0bfff05 	stb	r2,-4(fp)
		STATUE=STATUE^0x10;
   40e40:	e0bfff03 	ldbu	r2,-4(fp)
   40e44:	1080041c 	xori	r2,r2,16
   40e48:	e0bfff05 	stb	r2,-4(fp)
		HDMI_TX_WriteI2C_Byte_0(0xBE, STATUE);  //
   40e4c:	e0bfff03 	ldbu	r2,-4(fp)
   40e50:	100b883a 	mov	r5,r2
   40e54:	01002f84 	movi	r4,190
   40e58:	0040a980 	call	40a98 <HDMI_TX_WriteI2C_Byte_0>

		HDMI_TX_WriteI2C_Byte_0(0x1A, 0x01);	// enable TMDS output
   40e5c:	01400044 	movi	r5,1
   40e60:	01000684 	movi	r4,26
   40e64:	0040a980 	call	40a98 <HDMI_TX_WriteI2C_Byte_0>
	//
	//
		HDMI_TX_WriteI2C_Byte_0(0x3C, 0xFB);     // Interrupt Enable
   40e68:	01403ec4 	movi	r5,251
   40e6c:	01000f04 	movi	r4,60
   40e70:	0040a980 	call	40a98 <HDMI_TX_WriteI2C_Byte_0>

		//while(1){
		STATUE=HDMI_TX_ReadI2C_Byte_0(0x3D);
   40e74:	01000f44 	movi	r4,61
   40e78:	0040a500 	call	40a50 <HDMI_TX_ReadI2C_Byte_0>
   40e7c:	e0bfff05 	stb	r2,-4(fp)
		printf("STATUE= %x\n", STATUE);
   40e80:	e0bfff03 	ldbu	r2,-4(fp)
   40e84:	100b883a 	mov	r5,r2
   40e88:	01000174 	movhi	r4,5
   40e8c:	2115de04 	addi	r4,r4,22392
   40e90:	0043f000 	call	43f00 <printf>
		usleep(1000*1000);
   40e94:	010003f4 	movhi	r4,15
   40e98:	21109004 	addi	r4,r4,16960
   40e9c:	00536c00 	call	536c0 <usleep>
		//}


}
   40ea0:	0001883a 	nop
   40ea4:	e037883a 	mov	sp,fp
   40ea8:	dfc00117 	ldw	ra,4(sp)
   40eac:	df000017 	ldw	fp,0(sp)
   40eb0:	dec00204 	addi	sp,sp,8
   40eb4:	f800283a 	ret

00040eb8 <HDMI_TX_Init>:

bool HDMI_TX_Init(void){
   40eb8:	defffd04 	addi	sp,sp,-12
   40ebc:	dfc00215 	stw	ra,8(sp)
   40ec0:	df000115 	stw	fp,4(sp)
   40ec4:	df000104 	addi	fp,sp,4
    bool bSuccess = true;
   40ec8:	00800044 	movi	r2,1
   40ecc:	e0bfff05 	stb	r2,-4(fp)
    HDMI_TX_Reset();
   40ed0:	0040b540 	call	40b54 <HDMI_TX_Reset>
    usleep(500*1000);
   40ed4:	01000234 	movhi	r4,8
   40ed8:	21284804 	addi	r4,r4,-24288
   40edc:	00536c00 	call	536c0 <usleep>
    if (!HDMI_TX_ChipVerify()){
   40ee0:	0040be40 	call	40be4 <HDMI_TX_ChipVerify>
   40ee4:	1080005c 	xori	r2,r2,1
   40ee8:	10803fcc 	andi	r2,r2,255
   40eec:	10000426 	beq	r2,zero,40f00 <HDMI_TX_Init+0x48>
    	printf("Failed to find SIL9136-3 HDMI-TX Chip.\n");
   40ef0:	01000174 	movhi	r4,5
   40ef4:	2115e104 	addi	r4,r4,22404
   40ef8:	0043ffc0 	call	43ffc <puts>
        bSuccess = false;
   40efc:	e03fff05 	stb	zero,-4(fp)
        //return 0;
    }

    //HDMITX_InitInstance(&InitInstanceData) ;
    InitSII9136() ;
   40f00:	0040d1c0 	call	40d1c <InitSII9136>


    return bSuccess;
   40f04:	e0bfff03 	ldbu	r2,-4(fp)
}
   40f08:	e037883a 	mov	sp,fp
   40f0c:	dfc00117 	ldw	ra,4(sp)
   40f10:	df000017 	ldw	fp,0(sp)
   40f14:	dec00204 	addi	sp,sp,8
   40f18:	f800283a 	ret

00040f1c <IsPortDetected>:
	PORT_A = 0,
	PORT_B,
	PORT_NUM
}PORD_ID;

bool IsPortDetected(PORD_ID PortID){
   40f1c:	defffb04 	addi	sp,sp,-20
   40f20:	dfc00415 	stw	ra,16(sp)
   40f24:	df000315 	stw	fp,12(sp)
   40f28:	df000304 	addi	fp,sp,12
   40f2c:	e13fff15 	stw	r4,-4(fp)
	bool bDetected = false;
   40f30:	e03ffe05 	stb	zero,-8(fp)
	alt_u8 value8;

	if (PortID == PORT_B){ // CABLE_DET_B_RAW, IO, Address 0x6A[7] (Read Only)
   40f34:	e0bfff17 	ldw	r2,-4(fp)
   40f38:	10800058 	cmpnei	r2,r2,1
   40f3c:	1000111e 	bne	r2,zero,40f84 <IsPortDetected+0x68>
    	I2C_Read(I2C_SCL_BASE ,I2C_SDA_BASE , 0x98, 0x6a, &value8);
   40f40:	e0bffe44 	addi	r2,fp,-7
   40f44:	d8800015 	stw	r2,0(sp)
   40f48:	01c01a84 	movi	r7,106
   40f4c:	01bfe604 	movi	r6,-104
   40f50:	01400234 	movhi	r5,8
   40f54:	29442004 	addi	r5,r5,4224
   40f58:	01000234 	movhi	r4,8
   40f5c:	21042404 	addi	r4,r4,4240
   40f60:	0041e4c0 	call	41e4c <I2C_Read>
    	if(value8&0x80)
   40f64:	e0bffe43 	ldbu	r2,-7(fp)
   40f68:	10803fcc 	andi	r2,r2,255
   40f6c:	1080201c 	xori	r2,r2,128
   40f70:	10bfe004 	addi	r2,r2,-128
   40f74:	1000140e 	bge	r2,zero,40fc8 <IsPortDetected+0xac>
    		bDetected = true;
   40f78:	00800044 	movi	r2,1
   40f7c:	e0bffe05 	stb	r2,-8(fp)
   40f80:	00001106 	br	40fc8 <IsPortDetected+0xac>
    }else if (PortID == PORT_A){ //CABLE_DET_A_RAW, IO, Address 0x6F[0] (Read Only)
   40f84:	e0bfff17 	ldw	r2,-4(fp)
   40f88:	10000f1e 	bne	r2,zero,40fc8 <IsPortDetected+0xac>
    	I2C_Read(I2C_SCL_BASE ,I2C_SDA_BASE , 0x98, 0x6f, &value8);
   40f8c:	e0bffe44 	addi	r2,fp,-7
   40f90:	d8800015 	stw	r2,0(sp)
   40f94:	01c01bc4 	movi	r7,111
   40f98:	01bfe604 	movi	r6,-104
   40f9c:	01400234 	movhi	r5,8
   40fa0:	29442004 	addi	r5,r5,4224
   40fa4:	01000234 	movhi	r4,8
   40fa8:	21042404 	addi	r4,r4,4240
   40fac:	0041e4c0 	call	41e4c <I2C_Read>
    	if(value8&0x01)
   40fb0:	e0bffe43 	ldbu	r2,-7(fp)
   40fb4:	10803fcc 	andi	r2,r2,255
   40fb8:	1080004c 	andi	r2,r2,1
   40fbc:	10000226 	beq	r2,zero,40fc8 <IsPortDetected+0xac>
    		bDetected = true;
   40fc0:	00800044 	movi	r2,1
   40fc4:	e0bffe05 	stb	r2,-8(fp)
	}

	return bDetected;
   40fc8:	e0bffe03 	ldbu	r2,-8(fp)
}
   40fcc:	e037883a 	mov	sp,fp
   40fd0:	dfc00117 	ldw	ra,4(sp)
   40fd4:	df000017 	ldw	fp,0(sp)
   40fd8:	dec00204 	addi	sp,sp,8
   40fdc:	f800283a 	ret

00040fe0 <IsTmdsClockDetected>:

bool IsTmdsClockDetected(PORD_ID PortID){
   40fe0:	defffb04 	addi	sp,sp,-20
   40fe4:	dfc00415 	stw	ra,16(sp)
   40fe8:	df000315 	stw	fp,12(sp)
   40fec:	df000304 	addi	fp,sp,12
   40ff0:	e13fff15 	stw	r4,-4(fp)
	bool bDetected = false;
   40ff4:	e03ffe05 	stb	zero,-8(fp)
	alt_u8 value8;
	alt_u8 Mask=0;
   40ff8:	e03ffe45 	stb	zero,-7(fp)

	if (PortID == PORT_A) // TMDS_CLK_A_RAW, IO, Address 0x6A[4] (Read Only)
   40ffc:	e0bfff17 	ldw	r2,-4(fp)
   41000:	1000031e 	bne	r2,zero,41010 <IsTmdsClockDetected+0x30>
		Mask = 0x10;
   41004:	00800404 	movi	r2,16
   41008:	e0bffe45 	stb	r2,-7(fp)
   4100c:	00000506 	br	41024 <IsTmdsClockDetected+0x44>
    else if (PortID == PORT_B) //TMDS_CLK_B_RAW, IO, Address 0x6A[3] (Read Only)
   41010:	e0bfff17 	ldw	r2,-4(fp)
   41014:	10800058 	cmpnei	r2,r2,1
   41018:	1000021e 	bne	r2,zero,41024 <IsTmdsClockDetected+0x44>
		Mask = 0x08;
   4101c:	00800204 	movi	r2,8
   41020:	e0bffe45 	stb	r2,-7(fp)

   	I2C_Read(I2C_SCL_BASE ,I2C_SDA_BASE , 0x98, 0x6a, &value8);
   41024:	e0bffe84 	addi	r2,fp,-6
   41028:	d8800015 	stw	r2,0(sp)
   4102c:	01c01a84 	movi	r7,106
   41030:	01bfe604 	movi	r6,-104
   41034:	01400234 	movhi	r5,8
   41038:	29442004 	addi	r5,r5,4224
   4103c:	01000234 	movhi	r4,8
   41040:	21042404 	addi	r4,r4,4240
   41044:	0041e4c0 	call	41e4c <I2C_Read>
    	if(Mask&value8)
   41048:	e0bffe83 	ldbu	r2,-6(fp)
   4104c:	e0fffe43 	ldbu	r3,-7(fp)
   41050:	1884703a 	and	r2,r3,r2
   41054:	10803fcc 	andi	r2,r2,255
   41058:	10000226 	beq	r2,zero,41064 <IsTmdsClockDetected+0x84>
    		bDetected = true;
   4105c:	00800044 	movi	r2,1
   41060:	e0bffe05 	stb	r2,-8(fp)

	return bDetected;
   41064:	e0bffe03 	ldbu	r2,-8(fp)
}
   41068:	e037883a 	mov	sp,fp
   4106c:	dfc00117 	ldw	ra,4(sp)
   41070:	df000017 	ldw	fp,0(sp)
   41074:	dec00204 	addi	sp,sp,8
   41078:	f800283a 	ret

0004107c <Meaurement>:
 BG_FIELD_HEIGHT[12:0]
 BG_HDMI_INTERLACED
*/


void Meaurement(PORD_ID PortID){
   4107c:	defff604 	addi	sp,sp,-40
   41080:	dfc00915 	stw	ra,36(sp)
   41084:	df000815 	stw	fp,32(sp)
   41088:	dc400715 	stw	r17,28(sp)
   4108c:	dc000615 	stw	r16,24(sp)
   41090:	df000804 	addi	fp,sp,32
   41094:	e13ffd15 	stw	r4,-12(fp)
	alt_u8 value8, value8_L, value8_H;
	alt_u16 value16;
	float fValue;
	int i;

	printf("===== Port%d Measurement =====\r\n", PortID);
   41098:	e17ffd17 	ldw	r5,-12(fp)
   4109c:	01000174 	movhi	r4,5
   410a0:	2115eb04 	addi	r4,r4,22444
   410a4:	0043f000 	call	43f00 <printf>


	// set as background port for measurement
	// BG_MEAS_PORT_SEL[2:0], Addr 68 (HDMI), Address 0x00[5:3]
	printf("Set Port%d as background port for measurement\r\n", PortID);
   410a8:	e17ffd17 	ldw	r5,-12(fp)
   410ac:	01000174 	movhi	r4,5
   410b0:	2115f404 	addi	r4,r4,22480
   410b4:	0043f000 	call	43f00 <printf>
	I2C_Read(I2C_SCL_BASE ,I2C_SDA_BASE , 0x68, 0x00, &value8);
   410b8:	e0bffc04 	addi	r2,fp,-16
   410bc:	d8800015 	stw	r2,0(sp)
   410c0:	000f883a 	mov	r7,zero
   410c4:	01801a04 	movi	r6,104
   410c8:	01400234 	movhi	r5,8
   410cc:	29442004 	addi	r5,r5,4224
   410d0:	01000234 	movhi	r4,8
   410d4:	21042404 	addi	r4,r4,4240
   410d8:	0041e4c0 	call	41e4c <I2C_Read>
	value8 &= 0xC7;
   410dc:	e0fffc03 	ldbu	r3,-16(fp)
   410e0:	00bff1c4 	movi	r2,-57
   410e4:	1884703a 	and	r2,r3,r2
   410e8:	e0bffc05 	stb	r2,-16(fp)
	if (PortID == PORT_B)
   410ec:	e0bffd17 	ldw	r2,-12(fp)
   410f0:	10800058 	cmpnei	r2,r2,1
   410f4:	1000031e 	bne	r2,zero,41104 <Meaurement+0x88>
		value8 |= 0x08;
   410f8:	e0bffc03 	ldbu	r2,-16(fp)
   410fc:	10800214 	ori	r2,r2,8
   41100:	e0bffc05 	stb	r2,-16(fp)
	I2C_Write(I2C_SCL_BASE ,I2C_SDA_BASE , 0x68, 0x00, value8);
   41104:	e0bffc03 	ldbu	r2,-16(fp)
   41108:	10803fcc 	andi	r2,r2,255
   4110c:	d8800015 	stw	r2,0(sp)
   41110:	000f883a 	mov	r7,zero
   41114:	01801a04 	movi	r6,104
   41118:	01400234 	movhi	r5,8
   4111c:	29442004 	addi	r5,r5,4224
   41120:	01000234 	movhi	r4,8
   41124:	21042404 	addi	r4,r4,4240
   41128:	0041d380 	call	41d38 <I2C_Write>

	usleep(200*1000); //!!!!!!!!!!!! it is necessary to add delay here
   4112c:	010000f4 	movhi	r4,3
   41130:	21035004 	addi	r4,r4,3392
   41134:	00536c00 	call	536c0 <usleep>


	//BG_MEAS_REQ, Addr 68 (HDMI), Address 0x5A[5] (Self-Clearing)
	I2C_Read(I2C_SCL_BASE ,I2C_SDA_BASE , 0x68, 0x5A, &value8);
   41138:	e0bffc04 	addi	r2,fp,-16
   4113c:	d8800015 	stw	r2,0(sp)
   41140:	01c01684 	movi	r7,90
   41144:	01801a04 	movi	r6,104
   41148:	01400234 	movhi	r5,8
   4114c:	29442004 	addi	r5,r5,4224
   41150:	01000234 	movhi	r4,8
   41154:	21042404 	addi	r4,r4,4240
   41158:	0041e4c0 	call	41e4c <I2C_Read>
	value8 |= 0x20; //Requests an update of the selected background port synchronization parameter measurements
   4115c:	e0bffc03 	ldbu	r2,-16(fp)
   41160:	10800814 	ori	r2,r2,32
   41164:	e0bffc05 	stb	r2,-16(fp)
	I2C_Write(I2C_SCL_BASE ,I2C_SDA_BASE , 0x68, 0x5A, value8);
   41168:	e0bffc03 	ldbu	r2,-16(fp)
   4116c:	10803fcc 	andi	r2,r2,255
   41170:	d8800015 	stw	r2,0(sp)
   41174:	01c01684 	movi	r7,90
   41178:	01801a04 	movi	r6,104
   4117c:	01400234 	movhi	r5,8
   41180:	29442004 	addi	r5,r5,4224
   41184:	01000234 	movhi	r4,8
   41188:	21042404 	addi	r4,r4,4240
   4118c:	0041d380 	call	41d38 <I2C_Write>
	printf("BG_MEAS_REQ<--%0xh\r\n", value8);
   41190:	e0bffc03 	ldbu	r2,-16(fp)
   41194:	10803fcc 	andi	r2,r2,255
   41198:	100b883a 	mov	r5,r2
   4119c:	01000174 	movhi	r4,5
   411a0:	21160004 	addi	r4,r4,22528
   411a4:	0043f000 	call	43f00 <printf>
	

	//check measure done by monitor BG_MEAS_DONE_RAW, IO, Address 0x8D[1] (Read Only)
	i=0;
   411a8:	e03ffa15 	stw	zero,-24(fp)
	while(i++ < 100){
   411ac:	00000f06 	br	411ec <Meaurement+0x170>
		I2C_Read(I2C_SCL_BASE ,I2C_SDA_BASE , 0x98, 0x8D, &value8); // Note: it is IO Port
   411b0:	e0bffc04 	addi	r2,fp,-16
   411b4:	d8800015 	stw	r2,0(sp)
   411b8:	01c02344 	movi	r7,141
   411bc:	01bfe604 	movi	r6,-104
   411c0:	01400234 	movhi	r5,8
   411c4:	29442004 	addi	r5,r5,4224
   411c8:	01000234 	movhi	r4,8
   411cc:	21042404 	addi	r4,r4,4240
   411d0:	0041e4c0 	call	41e4c <I2C_Read>
		//printf("%d...BG_MEAS_DONE_RAW(0x8D[1])=%xh\r\n", i, value8);
		if (value8 & 0x02)
   411d4:	e0bffc03 	ldbu	r2,-16(fp)
   411d8:	10803fcc 	andi	r2,r2,255
   411dc:	1080008c 	andi	r2,r2,2
   411e0:	1000081e 	bne	r2,zero,41204 <Meaurement+0x188>
			break;
		else
			usleep(100);
   411e4:	01001904 	movi	r4,100
   411e8:	00536c00 	call	536c0 <usleep>
	printf("BG_MEAS_REQ<--%0xh\r\n", value8);
	

	//check measure done by monitor BG_MEAS_DONE_RAW, IO, Address 0x8D[1] (Read Only)
	i=0;
	while(i++ < 100){
   411ec:	e0bffa17 	ldw	r2,-24(fp)
   411f0:	10c00044 	addi	r3,r2,1
   411f4:	e0fffa15 	stw	r3,-24(fp)
   411f8:	10801910 	cmplti	r2,r2,100
   411fc:	103fec1e 	bne	r2,zero,411b0 <__alt_data_end+0xfffc29b0>
   41200:	00000106 	br	41208 <Meaurement+0x18c>
		I2C_Read(I2C_SCL_BASE ,I2C_SDA_BASE , 0x98, 0x8D, &value8); // Note: it is IO Port
		//printf("%d...BG_MEAS_DONE_RAW(0x8D[1])=%xh\r\n", i, value8);
		if (value8 & 0x02)
			break;
   41204:	0001883a 	nop
		else
			usleep(100);
	}
	if ((value8 & 0x02) != 0x02){
   41208:	e0bffc03 	ldbu	r2,-16(fp)
   4120c:	10803fcc 	andi	r2,r2,255
   41210:	1080008c 	andi	r2,r2,2
   41214:	1000071e 	bne	r2,zero,41234 <Meaurement+0x1b8>
		printf("measure failed0....BG_MEAS_DONE_RAW(0x8D[1])=%xh\r\n", value8);
   41218:	e0bffc03 	ldbu	r2,-16(fp)
   4121c:	10803fcc 	andi	r2,r2,255
   41220:	100b883a 	mov	r5,r2
   41224:	01000174 	movhi	r4,5
   41228:	21160604 	addi	r4,r4,22552
   4122c:	0043f000 	call	43f00 <printf>
		return;
   41230:	00014506 	br	41748 <Meaurement+0x6cc>
	}else{
		printf("BG_MEAS_DONE_RAW=%xh(wait %d)\r\n", value8, i);
   41234:	e0bffc03 	ldbu	r2,-16(fp)
   41238:	10803fcc 	andi	r2,r2,255
   4123c:	e1bffa17 	ldw	r6,-24(fp)
   41240:	100b883a 	mov	r5,r2
   41244:	01000174 	movhi	r4,5
   41248:	21161304 	addi	r4,r4,22604
   4124c:	0043f000 	call	43f00 <printf>
	}

	//BG_PARAM_LOCK, Addr 68 (HDMI), Address 0xEA[1] (Read Only)
	//BG_PARAM_LOCK (wait go high)
	i=0;
   41250:	e03ffa15 	stw	zero,-24(fp)
	while(i++ < 100){
   41254:	00000f06 	br	41294 <Meaurement+0x218>
		I2C_Read(I2C_SCL_BASE ,I2C_SDA_BASE , 0x68, 0xEA, &value8);
   41258:	e0bffc04 	addi	r2,fp,-16
   4125c:	d8800015 	stw	r2,0(sp)
   41260:	01c03a84 	movi	r7,234
   41264:	01801a04 	movi	r6,104
   41268:	01400234 	movhi	r5,8
   4126c:	29442004 	addi	r5,r5,4224
   41270:	01000234 	movhi	r4,8
   41274:	21042404 	addi	r4,r4,4240
   41278:	0041e4c0 	call	41e4c <I2C_Read>
		//printf("%d...BG_PARAM_LOCK(0xEA[1])=%xh\r\n", i, value8);
		if (value8 & 0x02)
   4127c:	e0bffc03 	ldbu	r2,-16(fp)
   41280:	10803fcc 	andi	r2,r2,255
   41284:	1080008c 	andi	r2,r2,2
   41288:	1000081e 	bne	r2,zero,412ac <Meaurement+0x230>
			break;
		else
			usleep(100);
   4128c:	01001904 	movi	r4,100
   41290:	00536c00 	call	536c0 <usleep>
	}

	//BG_PARAM_LOCK, Addr 68 (HDMI), Address 0xEA[1] (Read Only)
	//BG_PARAM_LOCK (wait go high)
	i=0;
	while(i++ < 100){
   41294:	e0bffa17 	ldw	r2,-24(fp)
   41298:	10c00044 	addi	r3,r2,1
   4129c:	e0fffa15 	stw	r3,-24(fp)
   412a0:	10801910 	cmplti	r2,r2,100
   412a4:	103fec1e 	bne	r2,zero,41258 <__alt_data_end+0xfffc2a58>
   412a8:	00000106 	br	412b0 <Meaurement+0x234>
		I2C_Read(I2C_SCL_BASE ,I2C_SDA_BASE , 0x68, 0xEA, &value8);
		//printf("%d...BG_PARAM_LOCK(0xEA[1])=%xh\r\n", i, value8);
		if (value8 & 0x02)
			break;
   412ac:	0001883a 	nop
		else
			usleep(100);

	}
	if ((value8 & 0x02) != 0x02){
   412b0:	e0bffc03 	ldbu	r2,-16(fp)
   412b4:	10803fcc 	andi	r2,r2,255
   412b8:	1080008c 	andi	r2,r2,2
   412bc:	1000071e 	bne	r2,zero,412dc <Meaurement+0x260>
		printf("measure failed1....BG_PARAM_LOCK(0xEA[1])=%xh\r\n", value8);
   412c0:	e0bffc03 	ldbu	r2,-16(fp)
   412c4:	10803fcc 	andi	r2,r2,255
   412c8:	100b883a 	mov	r5,r2
   412cc:	01000174 	movhi	r4,5
   412d0:	21161b04 	addi	r4,r4,22636
   412d4:	0043f000 	call	43f00 <printf>
		return;
   412d8:	00011b06 	br	41748 <Meaurement+0x6cc>
	}else{
		printf("BG_PARAM_LOCK=%xh(wait %d)\r\n", value8, i);
   412dc:	e0bffc03 	ldbu	r2,-16(fp)
   412e0:	10803fcc 	andi	r2,r2,255
   412e4:	e1bffa17 	ldw	r6,-24(fp)
   412e8:	100b883a 	mov	r5,r2
   412ec:	01000174 	movhi	r4,5
   412f0:	21162704 	addi	r4,r4,22684
   412f4:	0043f000 	call	43f00 <printf>
	}


		// BG_TMDSFREQ[8:0]
		// BG_TMDSFREQ_FRAC[6:0],
		I2C_Read(I2C_SCL_BASE ,I2C_SDA_BASE , 0x68, 0xE0, &value8_L);
   412f8:	e0bffc44 	addi	r2,fp,-15
   412fc:	d8800015 	stw	r2,0(sp)
   41300:	01c03804 	movi	r7,224
   41304:	01801a04 	movi	r6,104
   41308:	01400234 	movhi	r5,8
   4130c:	29442004 	addi	r5,r5,4224
   41310:	01000234 	movhi	r4,8
   41314:	21042404 	addi	r4,r4,4240
   41318:	0041e4c0 	call	41e4c <I2C_Read>
		I2C_Read(I2C_SCL_BASE ,I2C_SDA_BASE , 0x68, 0xE1, &value8_H);
   4131c:	e0bffc84 	addi	r2,fp,-14
   41320:	d8800015 	stw	r2,0(sp)
   41324:	01c03844 	movi	r7,225
   41328:	01801a04 	movi	r6,104
   4132c:	01400234 	movhi	r5,8
   41330:	29442004 	addi	r5,r5,4224
   41334:	01000234 	movhi	r4,8
   41338:	21042404 	addi	r4,r4,4240
   4133c:	0041e4c0 	call	41e4c <I2C_Read>
		//printf("TMDS frequency L=%xh, H=%xh\r\n", value8_L, value8_H);
		value16 = value8_L;
   41340:	e0bffc43 	ldbu	r2,-15(fp)
   41344:	10803fcc 	andi	r2,r2,255
   41348:	e0bff90d 	sth	r2,-28(fp)
		if (value8_H & 0x80)
   4134c:	e0bffc83 	ldbu	r2,-14(fp)
   41350:	10803fcc 	andi	r2,r2,255
   41354:	1080201c 	xori	r2,r2,128
   41358:	10bfe004 	addi	r2,r2,-128
   4135c:	1000030e 	bge	r2,zero,4136c <Meaurement+0x2f0>
			value16 += 256;
   41360:	e0bff90b 	ldhu	r2,-28(fp)
   41364:	10804004 	addi	r2,r2,256
   41368:	e0bff90d 	sth	r2,-28(fp)
		fValue = (float)value16 + (float)(value8_H & 0x7F)/128.0;
   4136c:	e0bff90b 	ldhu	r2,-28(fp)
   41370:	1009883a 	mov	r4,r2
   41374:	004277c0 	call	4277c <__floatunsisf>
   41378:	1007883a 	mov	r3,r2
   4137c:	1809883a 	mov	r4,r3
   41380:	0043a000 	call	43a00 <__extendsfdf2>
   41384:	1021883a 	mov	r16,r2
   41388:	1823883a 	mov	r17,r3
   4138c:	e0bffc83 	ldbu	r2,-14(fp)
   41390:	10803fcc 	andi	r2,r2,255
   41394:	10801fcc 	andi	r2,r2,127
   41398:	1009883a 	mov	r4,r2
   4139c:	00426580 	call	42658 <__floatsisf>
   413a0:	1007883a 	mov	r3,r2
   413a4:	1809883a 	mov	r4,r3
   413a8:	0043a000 	call	43a00 <__extendsfdf2>
   413ac:	1011883a 	mov	r8,r2
   413b0:	1813883a 	mov	r9,r3
   413b4:	000d883a 	mov	r6,zero
   413b8:	01d01834 	movhi	r7,16480
   413bc:	4009883a 	mov	r4,r8
   413c0:	480b883a 	mov	r5,r9
   413c4:	00431180 	call	43118 <__divdf3>
   413c8:	1009883a 	mov	r4,r2
   413cc:	180b883a 	mov	r5,r3
   413d0:	2005883a 	mov	r2,r4
   413d4:	2807883a 	mov	r3,r5
   413d8:	100d883a 	mov	r6,r2
   413dc:	180f883a 	mov	r7,r3
   413e0:	8009883a 	mov	r4,r16
   413e4:	880b883a 	mov	r5,r17
   413e8:	004286c0 	call	4286c <__adddf3>
   413ec:	1009883a 	mov	r4,r2
   413f0:	180b883a 	mov	r5,r3
   413f4:	2005883a 	mov	r2,r4
   413f8:	2807883a 	mov	r3,r5
   413fc:	1009883a 	mov	r4,r2
   41400:	180b883a 	mov	r5,r3
   41404:	0043b100 	call	43b10 <__truncdfsf2>
   41408:	1007883a 	mov	r3,r2
   4140c:	e0fffb15 	stw	r3,-20(fp)
		printf("TMDS frequency: %f Mhz\r\n", fValue);
   41410:	e13ffb17 	ldw	r4,-20(fp)
   41414:	0043a000 	call	43a00 <__extendsfdf2>
   41418:	100d883a 	mov	r6,r2
   4141c:	180f883a 	mov	r7,r3
   41420:	300b883a 	mov	r5,r6
   41424:	380d883a 	mov	r6,r7
   41428:	01000174 	movhi	r4,5
   4142c:	21162f04 	addi	r4,r4,22716
   41430:	0043f000 	call	43f00 <printf>

		//BG_DEEP_COLOR_MODE[1:0]
		I2C_Read(I2C_SCL_BASE ,I2C_SDA_BASE , 0x68, 0xEA, &value8);
   41434:	e0bffc04 	addi	r2,fp,-16
   41438:	d8800015 	stw	r2,0(sp)
   4143c:	01c03a84 	movi	r7,234
   41440:	01801a04 	movi	r6,104
   41444:	01400234 	movhi	r5,8
   41448:	29442004 	addi	r5,r5,4224
   4144c:	01000234 	movhi	r4,8
   41450:	21042404 	addi	r4,r4,4240
   41454:	0041e4c0 	call	41e4c <I2C_Read>
		printf("BG_DEEP_COLOR_MODE ");
   41458:	01000174 	movhi	r4,5
   4145c:	21163604 	addi	r4,r4,22744
   41460:	0043f000 	call	43f00 <printf>
		switch((value8 >> 2) & 0x03){
   41464:	e0bffc03 	ldbu	r2,-16(fp)
   41468:	10803fcc 	andi	r2,r2,255
   4146c:	1004d0ba 	srli	r2,r2,2
   41470:	10803fcc 	andi	r2,r2,255
   41474:	108000cc 	andi	r2,r2,3
   41478:	10c00060 	cmpeqi	r3,r2,1
   4147c:	18000d1e 	bne	r3,zero,414b4 <Meaurement+0x438>
   41480:	10c00088 	cmpgei	r3,r2,2
   41484:	1800021e 	bne	r3,zero,41490 <Meaurement+0x414>
   41488:	10000626 	beq	r2,zero,414a4 <Meaurement+0x428>
   4148c:	00001506 	br	414e4 <Meaurement+0x468>
   41490:	10c000a0 	cmpeqi	r3,r2,2
   41494:	18000b1e 	bne	r3,zero,414c4 <Meaurement+0x448>
   41498:	108000e0 	cmpeqi	r2,r2,3
   4149c:	10000d1e 	bne	r2,zero,414d4 <Meaurement+0x458>
   414a0:	00001006 	br	414e4 <Meaurement+0x468>
			case 0: printf("8-bit color\r\n"); break;
   414a4:	01000174 	movhi	r4,5
   414a8:	21163b04 	addi	r4,r4,22764
   414ac:	0043ffc0 	call	43ffc <puts>
   414b0:	00000c06 	br	414e4 <Meaurement+0x468>
			case 1: printf("10-bit color\r\n"); break;
   414b4:	01000174 	movhi	r4,5
   414b8:	21163f04 	addi	r4,r4,22780
   414bc:	0043ffc0 	call	43ffc <puts>
   414c0:	00000806 	br	414e4 <Meaurement+0x468>
			case 2: printf("12-bit color\r\n"); break;
   414c4:	01000174 	movhi	r4,5
   414c8:	21164304 	addi	r4,r4,22796
   414cc:	0043ffc0 	call	43ffc <puts>
   414d0:	00000406 	br	414e4 <Meaurement+0x468>
			case 3: printf("16-bit color\r\n"); break;
   414d4:	01000174 	movhi	r4,5
   414d8:	21164704 	addi	r4,r4,22812
   414dc:	0043ffc0 	call	43ffc <puts>
   414e0:	0001883a 	nop

		}

		//BG_TOTAL_LINE_WIDTH[13:0], Addr 68 (HDMI), Address 0xE4[5:0]; Address 0xE5[7:0] (Read Only)
		I2C_Read(I2C_SCL_BASE ,I2C_SDA_BASE , 0x68, 0xE4, &value8_H);
   414e4:	e0bffc84 	addi	r2,fp,-14
   414e8:	d8800015 	stw	r2,0(sp)
   414ec:	01c03904 	movi	r7,228
   414f0:	01801a04 	movi	r6,104
   414f4:	01400234 	movhi	r5,8
   414f8:	29442004 	addi	r5,r5,4224
   414fc:	01000234 	movhi	r4,8
   41500:	21042404 	addi	r4,r4,4240
   41504:	0041e4c0 	call	41e4c <I2C_Read>
		I2C_Read(I2C_SCL_BASE ,I2C_SDA_BASE , 0x68, 0xE5, &value8_L);
   41508:	e0bffc44 	addi	r2,fp,-15
   4150c:	d8800015 	stw	r2,0(sp)
   41510:	01c03944 	movi	r7,229
   41514:	01801a04 	movi	r6,104
   41518:	01400234 	movhi	r5,8
   4151c:	29442004 	addi	r5,r5,4224
   41520:	01000234 	movhi	r4,8
   41524:	21042404 	addi	r4,r4,4240
   41528:	0041e4c0 	call	41e4c <I2C_Read>
		value16 = ((value8_H & 0x1F) << 8) | value8_L;
   4152c:	e0bffc83 	ldbu	r2,-14(fp)
   41530:	10803fcc 	andi	r2,r2,255
   41534:	108007cc 	andi	r2,r2,31
   41538:	1004923a 	slli	r2,r2,8
   4153c:	1007883a 	mov	r3,r2
   41540:	e0bffc43 	ldbu	r2,-15(fp)
   41544:	10803fcc 	andi	r2,r2,255
   41548:	1884b03a 	or	r2,r3,r2
   4154c:	e0bff90d 	sth	r2,-28(fp)
		printf("BG_TOTAL_LINE_WIDTH %d\r\n", value16);
   41550:	e0bff90b 	ldhu	r2,-28(fp)
   41554:	100b883a 	mov	r5,r2
   41558:	01000174 	movhi	r4,5
   4155c:	21164b04 	addi	r4,r4,22828
   41560:	0043f000 	call	43f00 <printf>

		//BG_LINE_WIDTH[12:0], Addr 68 (HDMI), Address 0xE2[4:0]; Address 0xE3[7:0] (Read Only)
		I2C_Read(I2C_SCL_BASE ,I2C_SDA_BASE , 0x68, 0xE2, &value8_H);
   41564:	e0bffc84 	addi	r2,fp,-14
   41568:	d8800015 	stw	r2,0(sp)
   4156c:	01c03884 	movi	r7,226
   41570:	01801a04 	movi	r6,104
   41574:	01400234 	movhi	r5,8
   41578:	29442004 	addi	r5,r5,4224
   4157c:	01000234 	movhi	r4,8
   41580:	21042404 	addi	r4,r4,4240
   41584:	0041e4c0 	call	41e4c <I2C_Read>
		I2C_Read(I2C_SCL_BASE ,I2C_SDA_BASE , 0x68, 0xE3, &value8_L);
   41588:	e0bffc44 	addi	r2,fp,-15
   4158c:	d8800015 	stw	r2,0(sp)
   41590:	01c038c4 	movi	r7,227
   41594:	01801a04 	movi	r6,104
   41598:	01400234 	movhi	r5,8
   4159c:	29442004 	addi	r5,r5,4224
   415a0:	01000234 	movhi	r4,8
   415a4:	21042404 	addi	r4,r4,4240
   415a8:	0041e4c0 	call	41e4c <I2C_Read>
		value16 = ((value8_H & 0x1F) << 8) | value8_L;
   415ac:	e0bffc83 	ldbu	r2,-14(fp)
   415b0:	10803fcc 	andi	r2,r2,255
   415b4:	108007cc 	andi	r2,r2,31
   415b8:	1004923a 	slli	r2,r2,8
   415bc:	1007883a 	mov	r3,r2
   415c0:	e0bffc43 	ldbu	r2,-15(fp)
   415c4:	10803fcc 	andi	r2,r2,255
   415c8:	1884b03a 	or	r2,r3,r2
   415cc:	e0bff90d 	sth	r2,-28(fp)
		printf("BG_LINE_WIDTH %d\r\n", value16);
   415d0:	e0bff90b 	ldhu	r2,-28(fp)
   415d4:	100b883a 	mov	r5,r2
   415d8:	01000174 	movhi	r4,5
   415dc:	21165204 	addi	r4,r4,22856
   415e0:	0043f000 	call	43f00 <printf>

		//BG_TOTAL_FIELD_HEIGHT[12:0], Addr 68 (HDMI), Address 0xE8[4:0]; Address 0xE9[7:0] (Read Only)
		I2C_Read(I2C_SCL_BASE ,I2C_SDA_BASE , 0x68, 0xE8, &value8_H);
   415e4:	e0bffc84 	addi	r2,fp,-14
   415e8:	d8800015 	stw	r2,0(sp)
   415ec:	01c03a04 	movi	r7,232
   415f0:	01801a04 	movi	r6,104
   415f4:	01400234 	movhi	r5,8
   415f8:	29442004 	addi	r5,r5,4224
   415fc:	01000234 	movhi	r4,8
   41600:	21042404 	addi	r4,r4,4240
   41604:	0041e4c0 	call	41e4c <I2C_Read>
		I2C_Read(I2C_SCL_BASE ,I2C_SDA_BASE , 0x68, 0xE9, &value8_L);
   41608:	e0bffc44 	addi	r2,fp,-15
   4160c:	d8800015 	stw	r2,0(sp)
   41610:	01c03a44 	movi	r7,233
   41614:	01801a04 	movi	r6,104
   41618:	01400234 	movhi	r5,8
   4161c:	29442004 	addi	r5,r5,4224
   41620:	01000234 	movhi	r4,8
   41624:	21042404 	addi	r4,r4,4240
   41628:	0041e4c0 	call	41e4c <I2C_Read>
		value16 = ((value8_H & 0x1F) << 8) | value8_L;
   4162c:	e0bffc83 	ldbu	r2,-14(fp)
   41630:	10803fcc 	andi	r2,r2,255
   41634:	108007cc 	andi	r2,r2,31
   41638:	1004923a 	slli	r2,r2,8
   4163c:	1007883a 	mov	r3,r2
   41640:	e0bffc43 	ldbu	r2,-15(fp)
   41644:	10803fcc 	andi	r2,r2,255
   41648:	1884b03a 	or	r2,r3,r2
   4164c:	e0bff90d 	sth	r2,-28(fp)
		printf("BG_TOTAL_FIELD_HEIGHT %d\r\n", value16);
   41650:	e0bff90b 	ldhu	r2,-28(fp)
   41654:	100b883a 	mov	r5,r2
   41658:	01000174 	movhi	r4,5
   4165c:	21165704 	addi	r4,r4,22876
   41660:	0043f000 	call	43f00 <printf>


		//BG_FIELD_HEIGHT[12:0], Addr 68 (HDMI), Address 0xE6[4:0]; Address 0xE7[7:0] (Read Only)
		I2C_Read(I2C_SCL_BASE ,I2C_SDA_BASE , 0x68, 0xE6, &value8_H);
   41664:	e0bffc84 	addi	r2,fp,-14
   41668:	d8800015 	stw	r2,0(sp)
   4166c:	01c03984 	movi	r7,230
   41670:	01801a04 	movi	r6,104
   41674:	01400234 	movhi	r5,8
   41678:	29442004 	addi	r5,r5,4224
   4167c:	01000234 	movhi	r4,8
   41680:	21042404 	addi	r4,r4,4240
   41684:	0041e4c0 	call	41e4c <I2C_Read>
		I2C_Read(I2C_SCL_BASE ,I2C_SDA_BASE , 0x68, 0xE7, &value8_L);
   41688:	e0bffc44 	addi	r2,fp,-15
   4168c:	d8800015 	stw	r2,0(sp)
   41690:	01c039c4 	movi	r7,231
   41694:	01801a04 	movi	r6,104
   41698:	01400234 	movhi	r5,8
   4169c:	29442004 	addi	r5,r5,4224
   416a0:	01000234 	movhi	r4,8
   416a4:	21042404 	addi	r4,r4,4240
   416a8:	0041e4c0 	call	41e4c <I2C_Read>
		value16 = ((value8_H & 0x1F) << 8) | value8_L;
   416ac:	e0bffc83 	ldbu	r2,-14(fp)
   416b0:	10803fcc 	andi	r2,r2,255
   416b4:	108007cc 	andi	r2,r2,31
   416b8:	1004923a 	slli	r2,r2,8
   416bc:	1007883a 	mov	r3,r2
   416c0:	e0bffc43 	ldbu	r2,-15(fp)
   416c4:	10803fcc 	andi	r2,r2,255
   416c8:	1884b03a 	or	r2,r3,r2
   416cc:	e0bff90d 	sth	r2,-28(fp)
		printf("BG_FIELD_HEIGHT %d\r\n", value16);
   416d0:	e0bff90b 	ldhu	r2,-28(fp)
   416d4:	100b883a 	mov	r5,r2
   416d8:	01000174 	movhi	r4,5
   416dc:	21165e04 	addi	r4,r4,22904
   416e0:	0043f000 	call	43f00 <printf>

		//BG_HDMI_INTERLACED, Addr 68 (HDMI), Address 0xEA[0] (Read Only)
		I2C_Read(I2C_SCL_BASE ,I2C_SDA_BASE , 0x68, 0xEA, &value8);
   416e4:	e0bffc04 	addi	r2,fp,-16
   416e8:	d8800015 	stw	r2,0(sp)
   416ec:	01c03a84 	movi	r7,234
   416f0:	01801a04 	movi	r6,104
   416f4:	01400234 	movhi	r5,8
   416f8:	29442004 	addi	r5,r5,4224
   416fc:	01000234 	movhi	r4,8
   41700:	21042404 	addi	r4,r4,4240
   41704:	0041e4c0 	call	41e4c <I2C_Read>
		printf("BG_HDMI_INTERLACED %s\r\n", (value8 & 0x01)?"interlaced input":"progressive input");
   41708:	e0bffc03 	ldbu	r2,-16(fp)
   4170c:	10803fcc 	andi	r2,r2,255
   41710:	1080004c 	andi	r2,r2,1
   41714:	10000326 	beq	r2,zero,41724 <Meaurement+0x6a8>
   41718:	00800174 	movhi	r2,5
   4171c:	10966404 	addi	r2,r2,22928
   41720:	00000206 	br	4172c <Meaurement+0x6b0>
   41724:	00800174 	movhi	r2,5
   41728:	10966904 	addi	r2,r2,22948
   4172c:	100b883a 	mov	r5,r2
   41730:	01000174 	movhi	r4,5
   41734:	21166e04 	addi	r4,r4,22968
   41738:	0043f000 	call	43f00 <printf>

		printf("====\r\n");
   4173c:	01000174 	movhi	r4,5
   41740:	21167404 	addi	r4,r4,22992
   41744:	0043ffc0 	call	43ffc <puts>




}
   41748:	e6fffe04 	addi	sp,fp,-8
   4174c:	dfc00317 	ldw	ra,12(sp)
   41750:	df000217 	ldw	fp,8(sp)
   41754:	dc400117 	ldw	r17,4(sp)
   41758:	dc000017 	ldw	r16,0(sp)
   4175c:	dec00404 	addi	sp,sp,16
   41760:	f800283a 	ret

00041764 <WriteRxEDID>:


void WriteRxEDID(void){
   41764:	defffd04 	addi	sp,sp,-12
   41768:	dfc00215 	stw	ra,8(sp)
   4176c:	df000115 	stw	fp,4(sp)
   41770:	df000104 	addi	fp,sp,4
	bool bPass;
	 // RX0 EDID
	  bPass=HDMIRX_VerifyEeprom( RX0_EDID_I2C_SCL_BASE,RX0_EDID_I2C_SDA_BASE    );
   41774:	01400234 	movhi	r5,8
   41778:	29441404 	addi	r5,r5,4176
   4177c:	01000234 	movhi	r4,8
   41780:	21041804 	addi	r4,r4,4192
   41784:	00403540 	call	40354 <HDMIRX_VerifyEeprom>
   41788:	e0bfff05 	stb	r2,-4(fp)
	  if (!bPass){
   4178c:	e0bfff03 	ldbu	r2,-4(fp)
   41790:	1080005c 	xori	r2,r2,1
   41794:	10803fcc 	andi	r2,r2,255
   41798:	10001a26 	beq	r2,zero,41804 <WriteRxEDID+0xa0>
		  // need to write EDID
		  HDMIRX_WriteEeprom(  RX0_EDID_I2C_SCL_BASE,RX0_EDID_I2C_SDA_BASE    );
   4179c:	01400234 	movhi	r5,8
   417a0:	29441404 	addi	r5,r5,4176
   417a4:	01000234 	movhi	r4,8
   417a8:	21041804 	addi	r4,r4,4192
   417ac:	00402900 	call	40290 <HDMIRX_WriteEeprom>
		  printf("Write RX0 EEPROM EDID\r\n");
   417b0:	01000174 	movhi	r4,5
   417b4:	21167604 	addi	r4,r4,23000
   417b8:	0043ffc0 	call	43ffc <puts>
		  bPass=HDMIRX_VerifyEeprom( RX0_EDID_I2C_SCL_BASE,RX0_EDID_I2C_SDA_BASE    );
   417bc:	01400234 	movhi	r5,8
   417c0:	29441404 	addi	r5,r5,4176
   417c4:	01000234 	movhi	r4,8
   417c8:	21041804 	addi	r4,r4,4192
   417cc:	00403540 	call	40354 <HDMIRX_VerifyEeprom>
   417d0:	e0bfff05 	stb	r2,-4(fp)
		  printf("RX0 EEPROM EDID Verify %s \r\n", bPass?"OK":"NG");
   417d4:	e0bfff03 	ldbu	r2,-4(fp)
   417d8:	10000326 	beq	r2,zero,417e8 <WriteRxEDID+0x84>
   417dc:	00800174 	movhi	r2,5
   417e0:	10967c04 	addi	r2,r2,23024
   417e4:	00000206 	br	417f0 <WriteRxEDID+0x8c>
   417e8:	00800174 	movhi	r2,5
   417ec:	10967d04 	addi	r2,r2,23028
   417f0:	100b883a 	mov	r5,r2
   417f4:	01000174 	movhi	r4,5
   417f8:	21167e04 	addi	r4,r4,23032
   417fc:	0043f000 	call	43f00 <printf>
   41800:	00000306 	br	41810 <WriteRxEDID+0xac>
	  }else{
		  printf("RX0 EEPROM EDID ready\r\n");
   41804:	01000174 	movhi	r4,5
   41808:	21168604 	addi	r4,r4,23064
   4180c:	0043ffc0 	call	43ffc <puts>
	  }
	  // RX1 EDID
	  bPass=HDMIRX_VerifyEeprom( RX1_EDID_I2C_SCL_BASE,RX1_EDID_I2C_SDA_BASE    );
   41810:	01400234 	movhi	r5,8
   41814:	29440c04 	addi	r5,r5,4144
   41818:	01000234 	movhi	r4,8
   4181c:	21040804 	addi	r4,r4,4128
   41820:	00403540 	call	40354 <HDMIRX_VerifyEeprom>
   41824:	e0bfff05 	stb	r2,-4(fp)
	  if (!bPass){
   41828:	e0bfff03 	ldbu	r2,-4(fp)
   4182c:	1080005c 	xori	r2,r2,1
   41830:	10803fcc 	andi	r2,r2,255
   41834:	10001a26 	beq	r2,zero,418a0 <WriteRxEDID+0x13c>
		  // need to write EDID
		  HDMIRX_WriteEeprom(  RX1_EDID_I2C_SCL_BASE,RX1_EDID_I2C_SDA_BASE    );
   41838:	01400234 	movhi	r5,8
   4183c:	29440c04 	addi	r5,r5,4144
   41840:	01000234 	movhi	r4,8
   41844:	21040804 	addi	r4,r4,4128
   41848:	00402900 	call	40290 <HDMIRX_WriteEeprom>
		  printf("Write RX1 EEPROM EDID\r\n");
   4184c:	01000174 	movhi	r4,5
   41850:	21168c04 	addi	r4,r4,23088
   41854:	0043ffc0 	call	43ffc <puts>
		  bPass=HDMIRX_VerifyEeprom( RX1_EDID_I2C_SCL_BASE,RX1_EDID_I2C_SDA_BASE    );
   41858:	01400234 	movhi	r5,8
   4185c:	29440c04 	addi	r5,r5,4144
   41860:	01000234 	movhi	r4,8
   41864:	21040804 	addi	r4,r4,4128
   41868:	00403540 	call	40354 <HDMIRX_VerifyEeprom>
   4186c:	e0bfff05 	stb	r2,-4(fp)
		  printf("RX1 EEPROM EDID Verify %s \r\n", bPass?"OK":"NG");
   41870:	e0bfff03 	ldbu	r2,-4(fp)
   41874:	10000326 	beq	r2,zero,41884 <WriteRxEDID+0x120>
   41878:	00800174 	movhi	r2,5
   4187c:	10967c04 	addi	r2,r2,23024
   41880:	00000206 	br	4188c <WriteRxEDID+0x128>
   41884:	00800174 	movhi	r2,5
   41888:	10967d04 	addi	r2,r2,23028
   4188c:	100b883a 	mov	r5,r2
   41890:	01000174 	movhi	r4,5
   41894:	21169204 	addi	r4,r4,23112
   41898:	0043f000 	call	43f00 <printf>
	  }else{
		  printf("RX1 EEPROM EDID ready\r\n");
	  }
}
   4189c:	00000306 	br	418ac <WriteRxEDID+0x148>
		  HDMIRX_WriteEeprom(  RX1_EDID_I2C_SCL_BASE,RX1_EDID_I2C_SDA_BASE    );
		  printf("Write RX1 EEPROM EDID\r\n");
		  bPass=HDMIRX_VerifyEeprom( RX1_EDID_I2C_SCL_BASE,RX1_EDID_I2C_SDA_BASE    );
		  printf("RX1 EEPROM EDID Verify %s \r\n", bPass?"OK":"NG");
	  }else{
		  printf("RX1 EEPROM EDID ready\r\n");
   418a0:	01000174 	movhi	r4,5
   418a4:	21169a04 	addi	r4,r4,23144
   418a8:	0043ffc0 	call	43ffc <puts>
	  }
}
   418ac:	0001883a 	nop
   418b0:	e037883a 	mov	sp,fp
   418b4:	dfc00117 	ldw	ra,4(sp)
   418b8:	df000017 	ldw	fp,0(sp)
   418bc:	dec00204 	addi	sp,sp,8
   418c0:	f800283a 	ret

000418c4 <main>:

int main()
{
   418c4:	defff704 	addi	sp,sp,-36
   418c8:	dfc00815 	stw	ra,32(sp)
   418cc:	df000715 	stw	fp,28(sp)
   418d0:	df000704 	addi	fp,sp,28
	// bool bPass=true;
	 bool bCableDetected[2],bPreCabletDetected[2]={false,false};
   418d4:	e03ffd85 	stb	zero,-10(fp)
   418d8:	e03ffdc5 	stb	zero,-9(fp)
	 bool bClkDetected[2],bPreClkDetected[2]={false,false};
   418dc:	e03ffe85 	stb	zero,-6(fp)
   418e0:	e03ffec5 	stb	zero,-5(fp)
	 bool bStateChagned;
	 alt_u8 value,PrePortSelValue=0xFF,PortSelValue;
   418e4:	00bfffc4 	movi	r2,-1
   418e8:	e0bffa45 	stb	r2,-23(fp)
	 int i, port;

	// printf("FMC D Port for HDMI Daughter Card \r\n");
//#ifdef WRITE_EEPROM
	 WriteRxEDID();
   418ec:	00417640 	call	41764 <WriteRxEDID>
//#endif
		HDMI_TX_Init();
   418f0:	0040eb80 	call	40eb8 <HDMI_TX_Init>

		usleep(2000);
   418f4:	0101f404 	movi	r4,2000
   418f8:	00536c00 	call	536c0 <usleep>

	    IOWR(ADV7619_RST_BASE, 0, 1);
   418fc:	00c00044 	movi	r3,1
   41900:	00800234 	movhi	r2,8
   41904:	10841c04 	addi	r2,r2,4208
   41908:	10c00035 	stwio	r3,0(r2)
	     usleep(20*1000);
   4190c:	01138804 	movi	r4,20000
   41910:	00536c00 	call	536c0 <usleep>
	     IOWR(ADV7619_RST_BASE, 0, 0);
   41914:	0007883a 	mov	r3,zero
   41918:	00800234 	movhi	r2,8
   4191c:	10841c04 	addi	r2,r2,4208
   41920:	10c00035 	stwio	r3,0(r2)
	     usleep(20*1000);
   41924:	01138804 	movi	r4,20000
   41928:	00536c00 	call	536c0 <usleep>
	     IOWR(ADV7619_RST_BASE, 0, 1);
   4192c:	00c00044 	movi	r3,1
   41930:	00800234 	movhi	r2,8
   41934:	10841c04 	addi	r2,r2,4208
   41938:	10c00035 	stwio	r3,0(r2)
	     usleep(20*1000);
   4193c:	01138804 	movi	r4,20000
   41940:	00536c00 	call	536c0 <usleep>
		I2C_Read(I2C_SCL_BASE ,I2C_SDA_BASE , 0x98, 0xEA, &value);
   41944:	e0bfff04 	addi	r2,fp,-4
   41948:	d8800015 	stw	r2,0(sp)
   4194c:	01c03a84 	movi	r7,234
   41950:	01bfe604 	movi	r6,-104
   41954:	01400234 	movhi	r5,8
   41958:	29442004 	addi	r5,r5,4224
   4195c:	01000234 	movhi	r4,8
   41960:	21042404 	addi	r4,r4,4240
   41964:	0041e4c0 	call	41e4c <I2C_Read>
		printf("version ID0 %x\r\n",value);
   41968:	e0bfff03 	ldbu	r2,-4(fp)
   4196c:	10803fcc 	andi	r2,r2,255
   41970:	100b883a 	mov	r5,r2
   41974:	01000174 	movhi	r4,5
   41978:	2116a004 	addi	r4,r4,23168
   4197c:	0043f000 	call	43f00 <printf>
		I2C_Read(I2C_SCL_BASE ,I2C_SDA_BASE , 0x98, 0xEB, &value);
   41980:	e0bfff04 	addi	r2,fp,-4
   41984:	d8800015 	stw	r2,0(sp)
   41988:	01c03ac4 	movi	r7,235
   4198c:	01bfe604 	movi	r6,-104
   41990:	01400234 	movhi	r5,8
   41994:	29442004 	addi	r5,r5,4224
   41998:	01000234 	movhi	r4,8
   4199c:	21042404 	addi	r4,r4,4240
   419a0:	0041e4c0 	call	41e4c <I2C_Read>
		printf("version ID1 %x\r\n",value);
   419a4:	e0bfff03 	ldbu	r2,-4(fp)
   419a8:	10803fcc 	andi	r2,r2,255
   419ac:	100b883a 	mov	r5,r2
   419b0:	01000174 	movhi	r4,5
   419b4:	2116a504 	addi	r4,r4,23188
   419b8:	0043f000 	call	43f00 <printf>
		printf("hdmi rx config starting...\r\n");
   419bc:	01000174 	movhi	r4,5
   419c0:	2116aa04 	addi	r4,r4,23208
   419c4:	0043ffc0 	call	43ffc <puts>
	    for(i=0;i<sizeof(regData)/sizeof(regData[0]);i++)
   419c8:	e03ffb15 	stw	zero,-20(fp)
   419cc:	00000c06 	br	41a00 <main+0x13c>
	    {
	    	hdmi_rx_regwrite(regData[i] );
   419d0:	00800174 	movhi	r2,5
   419d4:	1097c804 	addi	r2,r2,24352
   419d8:	e0fffb17 	ldw	r3,-20(fp)
   419dc:	18c7883a 	add	r3,r3,r3
   419e0:	18c7883a 	add	r3,r3,r3
   419e4:	10c5883a 	add	r2,r2,r3
   419e8:	10800017 	ldw	r2,0(r2)
   419ec:	1009883a 	mov	r4,r2
   419f0:	00404700 	call	40470 <hdmi_rx_regwrite>
		I2C_Read(I2C_SCL_BASE ,I2C_SDA_BASE , 0x98, 0xEA, &value);
		printf("version ID0 %x\r\n",value);
		I2C_Read(I2C_SCL_BASE ,I2C_SDA_BASE , 0x98, 0xEB, &value);
		printf("version ID1 %x\r\n",value);
		printf("hdmi rx config starting...\r\n");
	    for(i=0;i<sizeof(regData)/sizeof(regData[0]);i++)
   419f4:	e0bffb17 	ldw	r2,-20(fp)
   419f8:	10800044 	addi	r2,r2,1
   419fc:	e0bffb15 	stw	r2,-20(fp)
   41a00:	e0bffb17 	ldw	r2,-20(fp)
   41a04:	10800d30 	cmpltui	r2,r2,52
   41a08:	103ff11e 	bne	r2,zero,419d0 <__alt_data_end+0xfffc31d0>
	    	//if(bPass==FALSE){
	    	//	printf("write reg %d error\r\n",i);
	    	//	return 1;
	    	//}
	    }
	    printf("hdmi rx config done\r\n");
   41a0c:	01000174 	movhi	r4,5
   41a10:	2116b104 	addi	r4,r4,23236
   41a14:	0043ffc0 	call	43ffc <puts>

		I2C_Read(I2C_SCL_BASE ,I2C_SDA_BASE , 0x98, 0xFB, &value);
   41a18:	e0bfff04 	addi	r2,fp,-4
   41a1c:	d8800015 	stw	r2,0(sp)
   41a20:	01c03ec4 	movi	r7,251
   41a24:	01bfe604 	movi	r6,-104
   41a28:	01400234 	movhi	r5,8
   41a2c:	29442004 	addi	r5,r5,4224
   41a30:	01000234 	movhi	r4,8
   41a34:	21042404 	addi	r4,r4,4240
   41a38:	0041e4c0 	call	41e4c <I2C_Read>
		printf("HDMI_SLAVE_ADDR[6:0]=%xh\r\n", value);
   41a3c:	e0bfff03 	ldbu	r2,-4(fp)
   41a40:	10803fcc 	andi	r2,r2,255
   41a44:	100b883a 	mov	r5,r2
   41a48:	01000174 	movhi	r4,5
   41a4c:	2116b704 	addi	r4,r4,23260
   41a50:	0043f000 	call	43f00 <printf>

	    hdmi_interrupt_init();
   41a54:	00408600 	call	40860 <hdmi_interrupt_init>
	    	//	printf("RX port%d detected\r\n", port);
	   // }
	    while(1)
	    {
	    	// monitor two RX port status
	    	bStateChagned = false;
   41a58:	e03ffa05 	stb	zero,-24(fp)
		    for(port=0;port<PORT_NUM;port++){
   41a5c:	e03ffc15 	stw	zero,-16(fp)
   41a60:	00005b06 	br	41bd0 <main+0x30c>
		    	bCableDetected[port] = IsPortDetected(port);
   41a64:	e0bffc17 	ldw	r2,-16(fp)
   41a68:	1009883a 	mov	r4,r2
   41a6c:	0040f1c0 	call	40f1c <IsPortDetected>
   41a70:	1009883a 	mov	r4,r2
   41a74:	e0fffd04 	addi	r3,fp,-12
   41a78:	e0bffc17 	ldw	r2,-16(fp)
   41a7c:	1885883a 	add	r2,r3,r2
   41a80:	11000005 	stb	r4,0(r2)
		    	bClkDetected[port] = IsTmdsClockDetected(port);
   41a84:	e0bffc17 	ldw	r2,-16(fp)
   41a88:	1009883a 	mov	r4,r2
   41a8c:	0040fe00 	call	40fe0 <IsTmdsClockDetected>
   41a90:	1009883a 	mov	r4,r2
   41a94:	e0fffe04 	addi	r3,fp,-8
   41a98:	e0bffc17 	ldw	r2,-16(fp)
   41a9c:	1885883a 	add	r2,r3,r2
   41aa0:	11000005 	stb	r4,0(r2)

		    	//
	    		if (bPreCabletDetected[port] ^ bCableDetected[port]){
   41aa4:	e0fffd84 	addi	r3,fp,-10
   41aa8:	e0bffc17 	ldw	r2,-16(fp)
   41aac:	1885883a 	add	r2,r3,r2
   41ab0:	10c00003 	ldbu	r3,0(r2)
   41ab4:	e13ffd04 	addi	r4,fp,-12
   41ab8:	e0bffc17 	ldw	r2,-16(fp)
   41abc:	2085883a 	add	r2,r4,r2
   41ac0:	10800003 	ldbu	r2,0(r2)
   41ac4:	1884f03a 	xor	r2,r3,r2
   41ac8:	10803fcc 	andi	r2,r2,255
   41acc:	10001826 	beq	r2,zero,41b30 <main+0x26c>
	    			bPreCabletDetected[port] = bCableDetected[port];
   41ad0:	e0fffd04 	addi	r3,fp,-12
   41ad4:	e0bffc17 	ldw	r2,-16(fp)
   41ad8:	1885883a 	add	r2,r3,r2
   41adc:	10c00003 	ldbu	r3,0(r2)
   41ae0:	e13ffd84 	addi	r4,fp,-10
   41ae4:	e0bffc17 	ldw	r2,-16(fp)
   41ae8:	2085883a 	add	r2,r4,r2
   41aec:	10c00005 	stb	r3,0(r2)
		    		printf("RX port%d cable %s\r\n", port, bCableDetected[port]?"detected":"removed");
   41af0:	e0fffd04 	addi	r3,fp,-12
   41af4:	e0bffc17 	ldw	r2,-16(fp)
   41af8:	1885883a 	add	r2,r3,r2
   41afc:	10800003 	ldbu	r2,0(r2)
   41b00:	10803fcc 	andi	r2,r2,255
   41b04:	10000326 	beq	r2,zero,41b14 <main+0x250>
   41b08:	00800174 	movhi	r2,5
   41b0c:	1096be04 	addi	r2,r2,23288
   41b10:	00000206 	br	41b1c <main+0x258>
   41b14:	00800174 	movhi	r2,5
   41b18:	1096c104 	addi	r2,r2,23300
   41b1c:	100d883a 	mov	r6,r2
   41b20:	e17ffc17 	ldw	r5,-16(fp)
   41b24:	01000174 	movhi	r4,5
   41b28:	2116c304 	addi	r4,r4,23308
   41b2c:	0043f000 	call	43f00 <printf>
		    		//bStateChagned = true;
	    		}

		    	//
	    		if (bPreClkDetected[port] ^ bClkDetected[port]){
   41b30:	e0fffe84 	addi	r3,fp,-6
   41b34:	e0bffc17 	ldw	r2,-16(fp)
   41b38:	1885883a 	add	r2,r3,r2
   41b3c:	10c00003 	ldbu	r3,0(r2)
   41b40:	e13ffe04 	addi	r4,fp,-8
   41b44:	e0bffc17 	ldw	r2,-16(fp)
   41b48:	2085883a 	add	r2,r4,r2
   41b4c:	10800003 	ldbu	r2,0(r2)
   41b50:	1884f03a 	xor	r2,r3,r2
   41b54:	10803fcc 	andi	r2,r2,255
   41b58:	10001a26 	beq	r2,zero,41bc4 <main+0x300>
	    			bPreClkDetected[port] = bClkDetected[port];
   41b5c:	e0fffe04 	addi	r3,fp,-8
   41b60:	e0bffc17 	ldw	r2,-16(fp)
   41b64:	1885883a 	add	r2,r3,r2
   41b68:	10c00003 	ldbu	r3,0(r2)
   41b6c:	e13ffe84 	addi	r4,fp,-6
   41b70:	e0bffc17 	ldw	r2,-16(fp)
   41b74:	2085883a 	add	r2,r4,r2
   41b78:	10c00005 	stb	r3,0(r2)
		    		printf("RX port%d TMDS clock %s\r\n", port, bClkDetected[port]?"detected":"undetected");
   41b7c:	e0fffe04 	addi	r3,fp,-8
   41b80:	e0bffc17 	ldw	r2,-16(fp)
   41b84:	1885883a 	add	r2,r3,r2
   41b88:	10800003 	ldbu	r2,0(r2)
   41b8c:	10803fcc 	andi	r2,r2,255
   41b90:	10000326 	beq	r2,zero,41ba0 <main+0x2dc>
   41b94:	00800174 	movhi	r2,5
   41b98:	1096be04 	addi	r2,r2,23288
   41b9c:	00000206 	br	41ba8 <main+0x2e4>
   41ba0:	00800174 	movhi	r2,5
   41ba4:	1096c904 	addi	r2,r2,23332
   41ba8:	100d883a 	mov	r6,r2
   41bac:	e17ffc17 	ldw	r5,-16(fp)
   41bb0:	01000174 	movhi	r4,5
   41bb4:	2116cc04 	addi	r4,r4,23344
   41bb8:	0043f000 	call	43f00 <printf>
		    		bStateChagned = true;
   41bbc:	00800044 	movi	r2,1
   41bc0:	e0bffa05 	stb	r2,-24(fp)
	   // }
	    while(1)
	    {
	    	// monitor two RX port status
	    	bStateChagned = false;
		    for(port=0;port<PORT_NUM;port++){
   41bc4:	e0bffc17 	ldw	r2,-16(fp)
   41bc8:	10800044 	addi	r2,r2,1
   41bcc:	e0bffc15 	stw	r2,-16(fp)
   41bd0:	e0bffc17 	ldw	r2,-16(fp)
   41bd4:	10800090 	cmplti	r2,r2,2
   41bd8:	103fa21e 	bne	r2,zero,41a64 <__alt_data_end+0xfffc3264>
		    		printf("RX port%d TMDS clock %s\r\n", port, bClkDetected[port]?"detected":"undetected");
		    		bStateChagned = true;
	    		}
	        }

		    if (bStateChagned){
   41bdc:	e0bffa03 	ldbu	r2,-24(fp)
   41be0:	10002a26 	beq	r2,zero,41c8c <main+0x3c8>
		    	// Set active RX port
		    	PortSelValue = 0xFF;
   41be4:	00bfffc4 	movi	r2,-1
   41be8:	e0bffa85 	stb	r2,-22(fp)
		    	if (bClkDetected[PORT_A] ){
   41bec:	e0bffe03 	ldbu	r2,-8(fp)
   41bf0:	10803fcc 	andi	r2,r2,255
   41bf4:	10000326 	beq	r2,zero,41c04 <main+0x340>
		    		PortSelValue = 0x00; // set port A as active
   41bf8:	e03ffa85 	stb	zero,-22(fp)
		    		port = PORT_A;
   41bfc:	e03ffc15 	stw	zero,-16(fp)
   41c00:	00000706 	br	41c20 <main+0x35c>
		    	}else if (bClkDetected[PORT_B]){
   41c04:	e0bffe43 	ldbu	r2,-7(fp)
   41c08:	10803fcc 	andi	r2,r2,255
   41c0c:	10000426 	beq	r2,zero,41c20 <main+0x35c>
		    		PortSelValue = 0x01; // set port B as active
   41c10:	00800044 	movi	r2,1
   41c14:	e0bffa85 	stb	r2,-22(fp)
		    		port = PORT_B;
   41c18:	00800044 	movi	r2,1
   41c1c:	e0bffc15 	stw	r2,-16(fp)
		    	}

		    	if ((PrePortSelValue != PortSelValue) && (PortSelValue != 0xFF)){
   41c20:	e0fffa43 	ldbu	r3,-23(fp)
   41c24:	e0bffa83 	ldbu	r2,-22(fp)
   41c28:	18801626 	beq	r3,r2,41c84 <main+0x3c0>
   41c2c:	e0bffa83 	ldbu	r2,-22(fp)
   41c30:	10803fe0 	cmpeqi	r2,r2,255
   41c34:	1000131e 	bne	r2,zero,41c84 <main+0x3c0>
		    		// port(s) active
		    		I2C_Write(I2C_SCL_BASE ,I2C_SDA_BASE , 0x68 ,0x00 ,PortSelValue); // set active port by HDMI_PORT_SELECT[2:0]
   41c38:	e0bffa83 	ldbu	r2,-22(fp)
   41c3c:	d8800015 	stw	r2,0(sp)
   41c40:	000f883a 	mov	r7,zero
   41c44:	01801a04 	movi	r6,104
   41c48:	01400234 	movhi	r5,8
   41c4c:	29442004 	addi	r5,r5,4224
   41c50:	01000234 	movhi	r4,8
   41c54:	21042404 	addi	r4,r4,4240
   41c58:	0041d380 	call	41d38 <I2C_Write>
		    		printf("Set RX port%d as active port\r\n", (PortSelValue == 0x00)?0:1);
   41c5c:	e0bffa83 	ldbu	r2,-22(fp)
   41c60:	1004c03a 	cmpne	r2,r2,zero
   41c64:	10803fcc 	andi	r2,r2,255
   41c68:	100b883a 	mov	r5,r2
   41c6c:	01000174 	movhi	r4,5
   41c70:	2116d304 	addi	r4,r4,23372
   41c74:	0043f000 	call	43f00 <printf>

		    		//bTmdsClockDetected = IsTmdsClockDetected(port);
		    		//printf("Port%d TMDS Clock detected:%s\r\n", port, bTmdsClockDetected?"yes":"no");
		    		Meaurement(port);
   41c78:	e0bffc17 	ldw	r2,-16(fp)
   41c7c:	1009883a 	mov	r4,r2
   41c80:	004107c0 	call	4107c <Meaurement>
		    	}
	    		PrePortSelValue = PortSelValue;
   41c84:	e0bffa83 	ldbu	r2,-22(fp)
   41c88:	e0bffa45 	stb	r2,-23(fp)
		    }

	        //
	    	usleep(10*1000);
   41c8c:	0109c404 	movi	r4,10000
   41c90:	00536c00 	call	536c0 <usleep>
//	    	usleep(1000*1000);

	    }
   41c94:	003f7006 	br	41a58 <__alt_data_end+0xfffc3258>

00041c98 <I2C_Open>:
void i2c_start(alt_u32 clk_base, alt_u32 data_base);
void i2c_stop(alt_u32 clk_base, alt_u32 data_base);
bool i2c_write(alt_u32 clk_base, alt_u32 data_base, alt_u8 Data);
void i2c_read(alt_u32 clk_base, alt_u32 data_base, alt_u8 *pData, bool bAck);

void I2C_Open(alt_u32 clk_base, alt_u32 data_base){
   41c98:	defffd04 	addi	sp,sp,-12
   41c9c:	df000215 	stw	fp,8(sp)
   41ca0:	df000204 	addi	fp,sp,8
   41ca4:	e13ffe15 	stw	r4,-8(fp)
   41ca8:	e17fff15 	stw	r5,-4(fp)
    SDA_DIR_IN(data_base);
   41cac:	e0bfff17 	ldw	r2,-4(fp)
   41cb0:	10800104 	addi	r2,r2,4
   41cb4:	0007883a 	mov	r3,zero
   41cb8:	10c00035 	stwio	r3,0(r2)
    SCL_DIR_OUT(clk_base);
   41cbc:	e0bffe17 	ldw	r2,-8(fp)
   41cc0:	10800104 	addi	r2,r2,4
   41cc4:	1007883a 	mov	r3,r2
   41cc8:	00800044 	movi	r2,1
   41ccc:	18800035 	stwio	r2,0(r3)
    SCL_HIGH(clk_base); 
   41cd0:	e0bffe17 	ldw	r2,-8(fp)
   41cd4:	00c00044 	movi	r3,1
   41cd8:	10c00035 	stwio	r3,0(r2)
}
   41cdc:	0001883a 	nop
   41ce0:	e037883a 	mov	sp,fp
   41ce4:	df000017 	ldw	fp,0(sp)
   41ce8:	dec00104 	addi	sp,sp,4
   41cec:	f800283a 	ret

00041cf0 <I2C_Close>:

void I2C_Close(alt_u32 clk_base, alt_u32 data_base){
   41cf0:	defffd04 	addi	sp,sp,-12
   41cf4:	df000215 	stw	fp,8(sp)
   41cf8:	df000204 	addi	fp,sp,8
   41cfc:	e13ffe15 	stw	r4,-8(fp)
   41d00:	e17fff15 	stw	r5,-4(fp)
    SCL_DIR_IN(clk_base);
   41d04:	e0bffe17 	ldw	r2,-8(fp)
   41d08:	10800104 	addi	r2,r2,4
   41d0c:	0007883a 	mov	r3,zero
   41d10:	10c00035 	stwio	r3,0(r2)
    SDA_DIR_IN(data_base);
   41d14:	e0bfff17 	ldw	r2,-4(fp)
   41d18:	10800104 	addi	r2,r2,4
   41d1c:	0007883a 	mov	r3,zero
   41d20:	10c00035 	stwio	r3,0(r2)
}
   41d24:	0001883a 	nop
   41d28:	e037883a 	mov	sp,fp
   41d2c:	df000017 	ldw	fp,0(sp)
   41d30:	dec00104 	addi	sp,sp,4
   41d34:	f800283a 	ret

00041d38 <I2C_Write>:

bool I2C_Write(alt_u32 clk_base, alt_u32 data_base, alt_8 DeviceAddr, alt_u8 ControlAddr, alt_u8 ControlData){
   41d38:	defff804 	addi	sp,sp,-32
   41d3c:	dfc00715 	stw	ra,28(sp)
   41d40:	df000615 	stw	fp,24(sp)
   41d44:	df000604 	addi	fp,sp,24
   41d48:	e13ffb15 	stw	r4,-20(fp)
   41d4c:	e17ffc15 	stw	r5,-16(fp)
   41d50:	3009883a 	mov	r4,r6
   41d54:	3807883a 	mov	r3,r7
   41d58:	e0800217 	ldw	r2,8(fp)
   41d5c:	e13ffd05 	stb	r4,-12(fp)
   41d60:	e0fffe05 	stb	r3,-8(fp)
   41d64:	e0bfff05 	stb	r2,-4(fp)
    bool bSuccess = true;
   41d68:	00800044 	movi	r2,1
   41d6c:	e0bffa05 	stb	r2,-24(fp)
    //alt_u8 DeviceAddr;
    
    // device id
    //DeviceAddr = HMB_E2_I2C_ID;

    i2c_start(clk_base, data_base);
   41d70:	e17ffc17 	ldw	r5,-16(fp)
   41d74:	e13ffb17 	ldw	r4,-20(fp)
   41d78:	00421140 	call	42114 <i2c_start>
    if (!i2c_write(clk_base, data_base, DeviceAddr)){  // send ID
   41d7c:	e0bffd03 	ldbu	r2,-12(fp)
   41d80:	10803fcc 	andi	r2,r2,255
   41d84:	100d883a 	mov	r6,r2
   41d88:	e17ffc17 	ldw	r5,-16(fp)
   41d8c:	e13ffb17 	ldw	r4,-20(fp)
   41d90:	00422180 	call	42218 <i2c_write>
   41d94:	1080005c 	xori	r2,r2,1
   41d98:	10803fcc 	andi	r2,r2,255
   41d9c:	10000426 	beq	r2,zero,41db0 <I2C_Write+0x78>
        bSuccess = false;
   41da0:	e03ffa05 	stb	zero,-24(fp)
        I2C_DEBUG(("I2C Fail: Address NACK!\n"));
   41da4:	01000174 	movhi	r4,5
   41da8:	2116db04 	addi	r4,r4,23404
   41dac:	00424d40 	call	424d4 <myprintf>
    }
    if (bSuccess && !i2c_write(clk_base, data_base, ControlAddr)){ // send sub-address
   41db0:	e0bffa03 	ldbu	r2,-24(fp)
   41db4:	10000c26 	beq	r2,zero,41de8 <I2C_Write+0xb0>
   41db8:	e0bffe03 	ldbu	r2,-8(fp)
   41dbc:	100d883a 	mov	r6,r2
   41dc0:	e17ffc17 	ldw	r5,-16(fp)
   41dc4:	e13ffb17 	ldw	r4,-20(fp)
   41dc8:	00422180 	call	42218 <i2c_write>
   41dcc:	1080005c 	xori	r2,r2,1
   41dd0:	10803fcc 	andi	r2,r2,255
   41dd4:	10000426 	beq	r2,zero,41de8 <I2C_Write+0xb0>
        bSuccess = false;
   41dd8:	e03ffa05 	stb	zero,-24(fp)
        I2C_DEBUG(("I2C Fail: SubAddress NACK!\n"));
   41ddc:	01000174 	movhi	r4,5
   41de0:	2116e204 	addi	r4,r4,23432
   41de4:	00424d40 	call	424d4 <myprintf>
    }            
    if (bSuccess && !i2c_write(clk_base, data_base, ControlData)){  
   41de8:	e0bffa03 	ldbu	r2,-24(fp)
   41dec:	10000c26 	beq	r2,zero,41e20 <I2C_Write+0xe8>
   41df0:	e0bfff03 	ldbu	r2,-4(fp)
   41df4:	100d883a 	mov	r6,r2
   41df8:	e17ffc17 	ldw	r5,-16(fp)
   41dfc:	e13ffb17 	ldw	r4,-20(fp)
   41e00:	00422180 	call	42218 <i2c_write>
   41e04:	1080005c 	xori	r2,r2,1
   41e08:	10803fcc 	andi	r2,r2,255
   41e0c:	10000426 	beq	r2,zero,41e20 <I2C_Write+0xe8>
        bSuccess = false;
   41e10:	e03ffa05 	stb	zero,-24(fp)
        I2C_DEBUG(("I2C Fail: write NACK!\n"));
   41e14:	01000174 	movhi	r4,5
   41e18:	2116e904 	addi	r4,r4,23460
   41e1c:	00424d40 	call	424d4 <myprintf>
    }
    i2c_stop(clk_base, data_base);
   41e20:	e17ffc17 	ldw	r5,-16(fp)
   41e24:	e13ffb17 	ldw	r4,-20(fp)
   41e28:	00421a00 	call	421a0 <i2c_stop>
    
    usleep(7*1000); // delay to wait EE2 ready (at least 5 ms delay is required)
   41e2c:	0106d604 	movi	r4,7000
   41e30:	00536c00 	call	536c0 <usleep>
    
    return bSuccess;
   41e34:	e0bffa03 	ldbu	r2,-24(fp)

    
}
   41e38:	e037883a 	mov	sp,fp
   41e3c:	dfc00117 	ldw	ra,4(sp)
   41e40:	df000017 	ldw	fp,0(sp)
   41e44:	dec00204 	addi	sp,sp,8
   41e48:	f800283a 	ret

00041e4c <I2C_Read>:

bool I2C_Read(alt_u32 clk_base, alt_u32 data_base, alt_8 DeviceAddr, alt_u8 ControlAddr, alt_u8 *pControlData){
   41e4c:	defff904 	addi	sp,sp,-28
   41e50:	dfc00615 	stw	ra,24(sp)
   41e54:	df000515 	stw	fp,20(sp)
   41e58:	df000504 	addi	fp,sp,20
   41e5c:	e13ffc15 	stw	r4,-16(fp)
   41e60:	e17ffd15 	stw	r5,-12(fp)
   41e64:	3007883a 	mov	r3,r6
   41e68:	3805883a 	mov	r2,r7
   41e6c:	e0fffe05 	stb	r3,-8(fp)
   41e70:	e0bfff05 	stb	r2,-4(fp)
    bool bSuccess = true;
   41e74:	00800044 	movi	r2,1
   41e78:	e0bffb05 	stb	r2,-20(fp)
    //alt_u8 DeviceAddr;
   
    // device id
    //DeviceAddr = HMB_E2_I2C_ID;

    i2c_start(clk_base, data_base);
   41e7c:	e17ffd17 	ldw	r5,-12(fp)
   41e80:	e13ffc17 	ldw	r4,-16(fp)
   41e84:	00421140 	call	42114 <i2c_start>
    if (!i2c_write(clk_base, data_base, DeviceAddr)){  // send ID
   41e88:	e0bffe03 	ldbu	r2,-8(fp)
   41e8c:	10803fcc 	andi	r2,r2,255
   41e90:	100d883a 	mov	r6,r2
   41e94:	e17ffd17 	ldw	r5,-12(fp)
   41e98:	e13ffc17 	ldw	r4,-16(fp)
   41e9c:	00422180 	call	42218 <i2c_write>
   41ea0:	1080005c 	xori	r2,r2,1
   41ea4:	10803fcc 	andi	r2,r2,255
   41ea8:	10000426 	beq	r2,zero,41ebc <I2C_Read+0x70>
        bSuccess = false;
   41eac:	e03ffb05 	stb	zero,-20(fp)
        I2C_DEBUG(("I2C Fail: Address NACK!\n"));
   41eb0:	01000174 	movhi	r4,5
   41eb4:	2116db04 	addi	r4,r4,23404
   41eb8:	00424d40 	call	424d4 <myprintf>
    }
    if (bSuccess && !i2c_write(clk_base, data_base, ControlAddr)){ // send sub-address
   41ebc:	e0bffb03 	ldbu	r2,-20(fp)
   41ec0:	10000c26 	beq	r2,zero,41ef4 <I2C_Read+0xa8>
   41ec4:	e0bfff03 	ldbu	r2,-4(fp)
   41ec8:	100d883a 	mov	r6,r2
   41ecc:	e17ffd17 	ldw	r5,-12(fp)
   41ed0:	e13ffc17 	ldw	r4,-16(fp)
   41ed4:	00422180 	call	42218 <i2c_write>
   41ed8:	1080005c 	xori	r2,r2,1
   41edc:	10803fcc 	andi	r2,r2,255
   41ee0:	10000426 	beq	r2,zero,41ef4 <I2C_Read+0xa8>
        bSuccess = false;
   41ee4:	e03ffb05 	stb	zero,-20(fp)
        I2C_DEBUG(("I2C Fail: SubAddress NACK!\n"));
   41ee8:	01000174 	movhi	r4,5
   41eec:	2116e204 	addi	r4,r4,23432
   41ef0:	00424d40 	call	424d4 <myprintf>
    }            
    i2c_start(clk_base, data_base);  // restart
   41ef4:	e17ffd17 	ldw	r5,-12(fp)
   41ef8:	e13ffc17 	ldw	r4,-16(fp)
   41efc:	00421140 	call	42114 <i2c_start>
    DeviceAddr |= 1; // Read
   41f00:	e0bffe03 	ldbu	r2,-8(fp)
   41f04:	10800054 	ori	r2,r2,1
   41f08:	e0bffe05 	stb	r2,-8(fp)
    if (bSuccess && !i2c_write(clk_base, data_base, DeviceAddr)){  // send id
   41f0c:	e0bffb03 	ldbu	r2,-20(fp)
   41f10:	10000d26 	beq	r2,zero,41f48 <I2C_Read+0xfc>
   41f14:	e0bffe03 	ldbu	r2,-8(fp)
   41f18:	10803fcc 	andi	r2,r2,255
   41f1c:	100d883a 	mov	r6,r2
   41f20:	e17ffd17 	ldw	r5,-12(fp)
   41f24:	e13ffc17 	ldw	r4,-16(fp)
   41f28:	00422180 	call	42218 <i2c_write>
   41f2c:	1080005c 	xori	r2,r2,1
   41f30:	10803fcc 	andi	r2,r2,255
   41f34:	10000426 	beq	r2,zero,41f48 <I2C_Read+0xfc>
        bSuccess = false;
   41f38:	e03ffb05 	stb	zero,-20(fp)
        I2C_DEBUG(("I2C Fail: Address+1 NACK!\n"));
   41f3c:	01000174 	movhi	r4,5
   41f40:	2116ef04 	addi	r4,r4,23484
   41f44:	00424d40 	call	424d4 <myprintf>
    }
    
    if (bSuccess){
   41f48:	e0bffb03 	ldbu	r2,-20(fp)
   41f4c:	10000526 	beq	r2,zero,41f64 <I2C_Read+0x118>
        i2c_read(clk_base, data_base, pControlData, false);  // read
   41f50:	000f883a 	mov	r7,zero
   41f54:	e1800217 	ldw	r6,8(fp)
   41f58:	e17ffd17 	ldw	r5,-12(fp)
   41f5c:	e13ffc17 	ldw	r4,-16(fp)
   41f60:	00423440 	call	42344 <i2c_read>
    }        
    i2c_stop(clk_base, data_base);
   41f64:	e17ffd17 	ldw	r5,-12(fp)
   41f68:	e13ffc17 	ldw	r4,-16(fp)
   41f6c:	00421a00 	call	421a0 <i2c_stop>
    
    return bSuccess;
   41f70:	e0bffb03 	ldbu	r2,-20(fp)
}
   41f74:	e037883a 	mov	sp,fp
   41f78:	dfc00117 	ldw	ra,4(sp)
   41f7c:	df000017 	ldw	fp,0(sp)
   41f80:	dec00204 	addi	sp,sp,8
   41f84:	f800283a 	ret

00041f88 <I2C_MultipleRead>:

bool I2C_MultipleRead(alt_u32 clk_base, alt_u32 data_base, alt_u8 DeviceAddr, alt_u8 RegAddr, alt_u8 szData[], alt_u16 len){
   41f88:	defff704 	addi	sp,sp,-36
   41f8c:	dfc00815 	stw	ra,32(sp)
   41f90:	df000715 	stw	fp,28(sp)
   41f94:	df000704 	addi	fp,sp,28
   41f98:	e13ffb15 	stw	r4,-20(fp)
   41f9c:	e17ffc15 	stw	r5,-16(fp)
   41fa0:	3009883a 	mov	r4,r6
   41fa4:	3807883a 	mov	r3,r7
   41fa8:	e0800317 	ldw	r2,12(fp)
   41fac:	e13ffd05 	stb	r4,-12(fp)
   41fb0:	e0fffe05 	stb	r3,-8(fp)
   41fb4:	e0bfff0d 	sth	r2,-4(fp)
    int i;
    bool bSuccess = true;
   41fb8:	00800044 	movi	r2,1
   41fbc:	e0bffa05 	stb	r2,-24(fp)

    i2c_start(clk_base, data_base);
   41fc0:	e17ffc17 	ldw	r5,-16(fp)
   41fc4:	e13ffb17 	ldw	r4,-20(fp)
   41fc8:	00421140 	call	42114 <i2c_start>
    if (!i2c_write(clk_base, data_base, DeviceAddr)){  // send ID
   41fcc:	e0bffd03 	ldbu	r2,-12(fp)
   41fd0:	100d883a 	mov	r6,r2
   41fd4:	e17ffc17 	ldw	r5,-16(fp)
   41fd8:	e13ffb17 	ldw	r4,-20(fp)
   41fdc:	00422180 	call	42218 <i2c_write>
   41fe0:	1080005c 	xori	r2,r2,1
   41fe4:	10803fcc 	andi	r2,r2,255
   41fe8:	10000426 	beq	r2,zero,41ffc <I2C_MultipleRead+0x74>
        bSuccess = false;
   41fec:	e03ffa05 	stb	zero,-24(fp)
        I2C_DEBUG(("I2C Fail: Address NACK!\n"));
   41ff0:	01000174 	movhi	r4,5
   41ff4:	2116db04 	addi	r4,r4,23404
   41ff8:	00424d40 	call	424d4 <myprintf>
    }
    if (bSuccess && !i2c_write(clk_base, data_base, RegAddr)){ // send sub-address
   41ffc:	e0bffa03 	ldbu	r2,-24(fp)
   42000:	10000c26 	beq	r2,zero,42034 <I2C_MultipleRead+0xac>
   42004:	e0bffe03 	ldbu	r2,-8(fp)
   42008:	100d883a 	mov	r6,r2
   4200c:	e17ffc17 	ldw	r5,-16(fp)
   42010:	e13ffb17 	ldw	r4,-20(fp)
   42014:	00422180 	call	42218 <i2c_write>
   42018:	1080005c 	xori	r2,r2,1
   4201c:	10803fcc 	andi	r2,r2,255
   42020:	10000426 	beq	r2,zero,42034 <I2C_MultipleRead+0xac>
        bSuccess = false;
   42024:	e03ffa05 	stb	zero,-24(fp)
        I2C_DEBUG(("I2C Fail: SubAddress NACK!\n"));
   42028:	01000174 	movhi	r4,5
   4202c:	2116e204 	addi	r4,r4,23432
   42030:	00424d40 	call	424d4 <myprintf>
    }    
    if (bSuccess)        
   42034:	e0bffa03 	ldbu	r2,-24(fp)
   42038:	10000326 	beq	r2,zero,42048 <I2C_MultipleRead+0xc0>
        i2c_start(clk_base, data_base);  // restart
   4203c:	e17ffc17 	ldw	r5,-16(fp)
   42040:	e13ffb17 	ldw	r4,-20(fp)
   42044:	00421140 	call	42114 <i2c_start>
    DeviceAddr |= 1; // Read
   42048:	e0bffd03 	ldbu	r2,-12(fp)
   4204c:	10800054 	ori	r2,r2,1
   42050:	e0bffd05 	stb	r2,-12(fp)
    if (bSuccess && !i2c_write(clk_base, data_base, DeviceAddr)){  // send id
   42054:	e0bffa03 	ldbu	r2,-24(fp)
   42058:	10000c26 	beq	r2,zero,4208c <I2C_MultipleRead+0x104>
   4205c:	e0bffd03 	ldbu	r2,-12(fp)
   42060:	100d883a 	mov	r6,r2
   42064:	e17ffc17 	ldw	r5,-16(fp)
   42068:	e13ffb17 	ldw	r4,-20(fp)
   4206c:	00422180 	call	42218 <i2c_write>
   42070:	1080005c 	xori	r2,r2,1
   42074:	10803fcc 	andi	r2,r2,255
   42078:	10000426 	beq	r2,zero,4208c <I2C_MultipleRead+0x104>
        bSuccess = false;
   4207c:	e03ffa05 	stb	zero,-24(fp)
        I2C_DEBUG(("I2C Fail: Address+1 NACK!\n"));
   42080:	01000174 	movhi	r4,5
   42084:	2116ef04 	addi	r4,r4,23484
   42088:	00424d40 	call	424d4 <myprintf>
    }
    
    if (bSuccess){
   4208c:	e0bffa03 	ldbu	r2,-24(fp)
   42090:	10001726 	beq	r2,zero,420f0 <I2C_MultipleRead+0x168>
        for(i=0;i<len && bSuccess;i++){
   42094:	e03ff915 	stw	zero,-28(fp)
   42098:	00001006 	br	420dc <I2C_MultipleRead+0x154>
            i2c_read(clk_base, data_base, &szData[i], (i==(len-1))?false:true);  // read
   4209c:	e0bff917 	ldw	r2,-28(fp)
   420a0:	e0c00217 	ldw	r3,8(fp)
   420a4:	1889883a 	add	r4,r3,r2
   420a8:	e0bfff0b 	ldhu	r2,-4(fp)
   420ac:	10ffffc4 	addi	r3,r2,-1
   420b0:	e0bff917 	ldw	r2,-28(fp)
   420b4:	1884c03a 	cmpne	r2,r3,r2
   420b8:	10803fcc 	andi	r2,r2,255
   420bc:	100f883a 	mov	r7,r2
   420c0:	200d883a 	mov	r6,r4
   420c4:	e17ffc17 	ldw	r5,-16(fp)
   420c8:	e13ffb17 	ldw	r4,-20(fp)
   420cc:	00423440 	call	42344 <i2c_read>
        bSuccess = false;
        I2C_DEBUG(("I2C Fail: Address+1 NACK!\n"));
    }
    
    if (bSuccess){
        for(i=0;i<len && bSuccess;i++){
   420d0:	e0bff917 	ldw	r2,-28(fp)
   420d4:	10800044 	addi	r2,r2,1
   420d8:	e0bff915 	stw	r2,-28(fp)
   420dc:	e0bfff0b 	ldhu	r2,-4(fp)
   420e0:	e0fff917 	ldw	r3,-28(fp)
   420e4:	1880020e 	bge	r3,r2,420f0 <I2C_MultipleRead+0x168>
   420e8:	e0bffa03 	ldbu	r2,-24(fp)
   420ec:	103feb1e 	bne	r2,zero,4209c <__alt_data_end+0xfffc389c>
            i2c_read(clk_base, data_base, &szData[i], (i==(len-1))?false:true);  // read
        }            
    }        
    i2c_stop(clk_base, data_base);
   420f0:	e17ffc17 	ldw	r5,-16(fp)
   420f4:	e13ffb17 	ldw	r4,-20(fp)
   420f8:	00421a00 	call	421a0 <i2c_stop>
    
    return bSuccess;    
   420fc:	e0bffa03 	ldbu	r2,-24(fp)
    
}
   42100:	e037883a 	mov	sp,fp
   42104:	dfc00117 	ldw	ra,4(sp)
   42108:	df000017 	ldw	fp,0(sp)
   4210c:	dec00204 	addi	sp,sp,8
   42110:	f800283a 	ret

00042114 <i2c_start>:
///////////// Interncal function (i2cXXX) body //////////////////////////////////////////////
/////////////////////////////////////////////////////////////////////////////////////////////


//SDA 1->0 while SCL=1
void i2c_start(alt_u32 clk_base, alt_u32 data_base){
   42114:	defffc04 	addi	sp,sp,-16
   42118:	dfc00315 	stw	ra,12(sp)
   4211c:	df000215 	stw	fp,8(sp)
   42120:	df000204 	addi	fp,sp,8
   42124:	e13ffe15 	stw	r4,-8(fp)
   42128:	e17fff15 	stw	r5,-4(fp)
    
    // make sure it is in normal state
    SDA_DIR_OUT(data_base);  // data output enabled
   4212c:	e0bfff17 	ldw	r2,-4(fp)
   42130:	10800104 	addi	r2,r2,4
   42134:	1007883a 	mov	r3,r2
   42138:	00800044 	movi	r2,1
   4213c:	18800035 	stwio	r2,0(r3)
    
    
    
    // start condition
    SDA_HIGH(data_base); // data high
   42140:	e0bfff17 	ldw	r2,-4(fp)
   42144:	00c00044 	movi	r3,1
   42148:	10c00035 	stwio	r3,0(r2)
    SCL_HIGH(clk_base);
   4214c:	e0bffe17 	ldw	r2,-8(fp)
   42150:	00c00044 	movi	r3,1
   42154:	10c00035 	stwio	r3,0(r2)
    SCL_DELAY;
   42158:	01000044 	movi	r4,1
   4215c:	00536c00 	call	536c0 <usleep>
     
    SDA_LOW(data_base); // data low
   42160:	e0bfff17 	ldw	r2,-4(fp)
   42164:	0007883a 	mov	r3,zero
   42168:	10c00035 	stwio	r3,0(r2)
    SCL_DELAY; 
   4216c:	01000044 	movi	r4,1
   42170:	00536c00 	call	536c0 <usleep>
    SCL_LOW(clk_base); // clock low
   42174:	e0bffe17 	ldw	r2,-8(fp)
   42178:	0007883a 	mov	r3,zero
   4217c:	10c00035 	stwio	r3,0(r2)
    SCL_DELAY;
   42180:	01000044 	movi	r4,1
   42184:	00536c00 	call	536c0 <usleep>
}
   42188:	0001883a 	nop
   4218c:	e037883a 	mov	sp,fp
   42190:	dfc00117 	ldw	ra,4(sp)
   42194:	df000017 	ldw	fp,0(sp)
   42198:	dec00204 	addi	sp,sp,8
   4219c:	f800283a 	ret

000421a0 <i2c_stop>:

// SDA 0->1 while SCL=1
void i2c_stop(alt_u32 clk_base, alt_u32 data_base){
   421a0:	defffc04 	addi	sp,sp,-16
   421a4:	dfc00315 	stw	ra,12(sp)
   421a8:	df000215 	stw	fp,8(sp)
   421ac:	df000204 	addi	fp,sp,8
   421b0:	e13ffe15 	stw	r4,-8(fp)
   421b4:	e17fff15 	stw	r5,-4(fp)
    // assume SCL = 0
    
    SDA_DIR_OUT(data_base);  // data output enabled
   421b8:	e0bfff17 	ldw	r2,-4(fp)
   421bc:	10800104 	addi	r2,r2,4
   421c0:	1007883a 	mov	r3,r2
   421c4:	00800044 	movi	r2,1
   421c8:	18800035 	stwio	r2,0(r3)
    SDA_LOW(data_base); // Data Low
   421cc:	e0bfff17 	ldw	r2,-4(fp)
   421d0:	0007883a 	mov	r3,zero
   421d4:	10c00035 	stwio	r3,0(r2)
    //SCL_DELAY; 
    SCL_HIGH(clk_base);  // clock high
   421d8:	e0bffe17 	ldw	r2,-8(fp)
   421dc:	00c00044 	movi	r3,1
   421e0:	10c00035 	stwio	r3,0(r2)
    SCL_DELAY; // clock high long delay
   421e4:	01000044 	movi	r4,1
   421e8:	00536c00 	call	536c0 <usleep>
    SDA_HIGH(data_base); // data high
   421ec:	e0bfff17 	ldw	r2,-4(fp)
   421f0:	00c00044 	movi	r3,1
   421f4:	10c00035 	stwio	r3,0(r2)
    SCL_DELAY; // data high delay
   421f8:	01000044 	movi	r4,1
   421fc:	00536c00 	call	536c0 <usleep>
    

    
}
   42200:	0001883a 	nop
   42204:	e037883a 	mov	sp,fp
   42208:	dfc00117 	ldw	ra,4(sp)
   4220c:	df000017 	ldw	fp,0(sp)
   42210:	dec00204 	addi	sp,sp,8
   42214:	f800283a 	ret

00042218 <i2c_write>:

bool i2c_write(alt_u32 clk_base, alt_u32 data_base, alt_u8 Data){ // return true if device response ack
   42218:	defff804 	addi	sp,sp,-32
   4221c:	dfc00715 	stw	ra,28(sp)
   42220:	df000615 	stw	fp,24(sp)
   42224:	df000604 	addi	fp,sp,24
   42228:	e13ffd15 	stw	r4,-12(fp)
   4222c:	e17ffe15 	stw	r5,-8(fp)
   42230:	3005883a 	mov	r2,r6
   42234:	e0bfff05 	stb	r2,-4(fp)
    alt_u8 Mask = 0x80;
   42238:	00bfe004 	movi	r2,-128
   4223c:	e0bffa05 	stb	r2,-24(fp)
    bool bAck;
    int i;
    
    // assume, SCL = 0
    
    SDA_DIR_OUT(data_base);  // data write mode
   42240:	e0bffe17 	ldw	r2,-8(fp)
   42244:	10800104 	addi	r2,r2,4
   42248:	1007883a 	mov	r3,r2
   4224c:	00800044 	movi	r2,1
   42250:	18800035 	stwio	r2,0(r3)
    
    for(i=0;i<8;i++){
   42254:	e03ffb15 	stw	zero,-20(fp)
   42258:	00001f06 	br	422d8 <i2c_write+0xc0>
        SCL_LOW(clk_base);  // new, make sure data change at clk low
   4225c:	e0bffd17 	ldw	r2,-12(fp)
   42260:	0007883a 	mov	r3,zero
   42264:	10c00035 	stwio	r3,0(r2)
        // output data on bus
        if (Data & Mask){ // there is a delay in this command
   42268:	e0ffff03 	ldbu	r3,-4(fp)
   4226c:	e0bffa03 	ldbu	r2,-24(fp)
   42270:	1884703a 	and	r2,r3,r2
   42274:	10803fcc 	andi	r2,r2,255
   42278:	10000426 	beq	r2,zero,4228c <i2c_write+0x74>
            SDA_HIGH(data_base);
   4227c:	e0bffe17 	ldw	r2,-8(fp)
   42280:	00c00044 	movi	r3,1
   42284:	10c00035 	stwio	r3,0(r2)
   42288:	00000306 	br	42298 <i2c_write+0x80>
        }else{    
            SDA_LOW(data_base);
   4228c:	e0bffe17 	ldw	r2,-8(fp)
   42290:	0007883a 	mov	r3,zero
   42294:	10c00035 	stwio	r3,0(r2)
        }
        Mask >>= 1; // there is a delay in this command
   42298:	e0bffa03 	ldbu	r2,-24(fp)
   4229c:	1004d07a 	srli	r2,r2,1
   422a0:	e0bffa05 	stb	r2,-24(fp)
        // clock high
        SCL_HIGH(clk_base);
   422a4:	e0bffd17 	ldw	r2,-12(fp)
   422a8:	00c00044 	movi	r3,1
   422ac:	10c00035 	stwio	r3,0(r2)
        SCL_DELAY;
   422b0:	01000044 	movi	r4,1
   422b4:	00536c00 	call	536c0 <usleep>
        SCL_LOW(clk_base);
   422b8:	e0bffd17 	ldw	r2,-12(fp)
   422bc:	0007883a 	mov	r3,zero
   422c0:	10c00035 	stwio	r3,0(r2)
        SCL_DELAY;
   422c4:	01000044 	movi	r4,1
   422c8:	00536c00 	call	536c0 <usleep>
    
    // assume, SCL = 0
    
    SDA_DIR_OUT(data_base);  // data write mode
    
    for(i=0;i<8;i++){
   422cc:	e0bffb17 	ldw	r2,-20(fp)
   422d0:	10800044 	addi	r2,r2,1
   422d4:	e0bffb15 	stw	r2,-20(fp)
   422d8:	e0bffb17 	ldw	r2,-20(fp)
   422dc:	10800210 	cmplti	r2,r2,8
   422e0:	103fde1e 	bne	r2,zero,4225c <__alt_data_end+0xfffc3a5c>
        SCL_LOW(clk_base);
        SCL_DELAY;
    }
    
    //===== get ack
    SDA_DIR_IN(data_base);  // data read mode
   422e4:	e0bffe17 	ldw	r2,-8(fp)
   422e8:	10800104 	addi	r2,r2,4
   422ec:	0007883a 	mov	r3,zero
   422f0:	10c00035 	stwio	r3,0(r2)
    //SCL_DELAY;
    // clock high
    SCL_HIGH(clk_base);  // clock high
   422f4:	e0bffd17 	ldw	r2,-12(fp)
   422f8:	00c00044 	movi	r3,1
   422fc:	10c00035 	stwio	r3,0(r2)
    SCL_DELAY;  // clock high delay
   42300:	01000044 	movi	r4,1
   42304:	00536c00 	call	536c0 <usleep>
    bAck = SDA_READ(data_base)?false:true;  // get ack
   42308:	e0bffe17 	ldw	r2,-8(fp)
   4230c:	10800037 	ldwio	r2,0(r2)
   42310:	1005003a 	cmpeq	r2,r2,zero
   42314:	e0bffc05 	stb	r2,-16(fp)
    //SCL_DELAY;
    //SDA_DIR_OUT;
    SCL_LOW(clk_base); // clock low         
   42318:	e0bffd17 	ldw	r2,-12(fp)
   4231c:	0007883a 	mov	r3,zero
   42320:	10c00035 	stwio	r3,0(r2)
    SCL_DELAY; // clock low delay
   42324:	01000044 	movi	r4,1
   42328:	00536c00 	call	536c0 <usleep>
    return bAck;
   4232c:	e0bffc03 	ldbu	r2,-16(fp)
}    
   42330:	e037883a 	mov	sp,fp
   42334:	dfc00117 	ldw	ra,4(sp)
   42338:	df000017 	ldw	fp,0(sp)
   4233c:	dec00204 	addi	sp,sp,8
   42340:	f800283a 	ret

00042344 <i2c_read>:

void i2c_read(alt_u32 clk_base, alt_u32 data_base, alt_u8 *pData, bool bAck){ // return true if device response ack
   42344:	defff804 	addi	sp,sp,-32
   42348:	dfc00715 	stw	ra,28(sp)
   4234c:	df000615 	stw	fp,24(sp)
   42350:	df000604 	addi	fp,sp,24
   42354:	e13ffc15 	stw	r4,-16(fp)
   42358:	e17ffd15 	stw	r5,-12(fp)
   4235c:	e1bffe15 	stw	r6,-8(fp)
   42360:	3805883a 	mov	r2,r7
   42364:	e0bfff05 	stb	r2,-4(fp)
    alt_u8 Data=0;
   42368:	e03ffa05 	stb	zero,-24(fp)
    int i;
    
    // assume SCL = low
    
    SDA_DIR_IN(data_base);  // set data read mode
   4236c:	e0bffd17 	ldw	r2,-12(fp)
   42370:	10800104 	addi	r2,r2,4
   42374:	0007883a 	mov	r3,zero
   42378:	10c00035 	stwio	r3,0(r2)
    SCL_LOW(clk_base); // clock low
   4237c:	e0bffc17 	ldw	r2,-16(fp)
   42380:	0007883a 	mov	r3,zero
   42384:	10c00035 	stwio	r3,0(r2)
    SCL_DELAY; // clock low delay
   42388:	01000044 	movi	r4,1
   4238c:	00536c00 	call	536c0 <usleep>

    for(i=0;i<8;i++){
   42390:	e03ffb15 	stw	zero,-20(fp)
   42394:	00001606 	br	423f0 <i2c_read+0xac>
        Data <<= 1;
   42398:	e0bffa03 	ldbu	r2,-24(fp)
   4239c:	1085883a 	add	r2,r2,r2
   423a0:	e0bffa05 	stb	r2,-24(fp)
        SCL_HIGH(clk_base);  // clock high
   423a4:	e0bffc17 	ldw	r2,-16(fp)
   423a8:	00c00044 	movi	r3,1
   423ac:	10c00035 	stwio	r3,0(r2)
        SCL_DELAY;
   423b0:	01000044 	movi	r4,1
   423b4:	00536c00 	call	536c0 <usleep>
        if (SDA_READ(data_base))  // read data   
   423b8:	e0bffd17 	ldw	r2,-12(fp)
   423bc:	10800037 	ldwio	r2,0(r2)
   423c0:	10000326 	beq	r2,zero,423d0 <i2c_read+0x8c>
            Data |= 0x01;
   423c4:	e0bffa03 	ldbu	r2,-24(fp)
   423c8:	10800054 	ori	r2,r2,1
   423cc:	e0bffa05 	stb	r2,-24(fp)
        SCL_LOW(clk_base);  // clock log  
   423d0:	e0bffc17 	ldw	r2,-16(fp)
   423d4:	0007883a 	mov	r3,zero
   423d8:	10c00035 	stwio	r3,0(r2)
        SCL_DELAY;
   423dc:	01000044 	movi	r4,1
   423e0:	00536c00 	call	536c0 <usleep>
    
    SDA_DIR_IN(data_base);  // set data read mode
    SCL_LOW(clk_base); // clock low
    SCL_DELAY; // clock low delay

    for(i=0;i<8;i++){
   423e4:	e0bffb17 	ldw	r2,-20(fp)
   423e8:	10800044 	addi	r2,r2,1
   423ec:	e0bffb15 	stw	r2,-20(fp)
   423f0:	e0bffb17 	ldw	r2,-20(fp)
   423f4:	10800210 	cmplti	r2,r2,8
   423f8:	103fe71e 	bne	r2,zero,42398 <__alt_data_end+0xfffc3b98>
        SCL_LOW(clk_base);  // clock log  
        SCL_DELAY;
    }
    
    // send ACK
    SCL_LOW(clk_base);  // new, make sure data change at clk low
   423fc:	e0bffc17 	ldw	r2,-16(fp)
   42400:	0007883a 	mov	r3,zero
   42404:	10c00035 	stwio	r3,0(r2)
    SDA_DIR_OUT(data_base);  // set data write mode
   42408:	e0bffd17 	ldw	r2,-12(fp)
   4240c:	10800104 	addi	r2,r2,4
   42410:	1007883a 	mov	r3,r2
   42414:	00800044 	movi	r2,1
   42418:	18800035 	stwio	r2,0(r3)
    if (bAck)
   4241c:	e0bfff03 	ldbu	r2,-4(fp)
   42420:	10000426 	beq	r2,zero,42434 <i2c_read+0xf0>
        SDA_LOW(data_base);
   42424:	e0bffd17 	ldw	r2,-12(fp)
   42428:	0007883a 	mov	r3,zero
   4242c:	10c00035 	stwio	r3,0(r2)
   42430:	00000306 	br	42440 <i2c_read+0xfc>
    else
        SDA_HIGH(data_base);
   42434:	e0bffd17 	ldw	r2,-12(fp)
   42438:	00c00044 	movi	r3,1
   4243c:	10c00035 	stwio	r3,0(r2)
    SCL_HIGH(clk_base); // clock high
   42440:	e0bffc17 	ldw	r2,-16(fp)
   42444:	00c00044 	movi	r3,1
   42448:	10c00035 	stwio	r3,0(r2)
    SCL_DELAY; // clock high  delay
   4244c:	01000044 	movi	r4,1
   42450:	00536c00 	call	536c0 <usleep>
    SCL_LOW(clk_base); // clock low
   42454:	e0bffc17 	ldw	r2,-16(fp)
   42458:	0007883a 	mov	r3,zero
   4245c:	10c00035 	stwio	r3,0(r2)
    SCL_DELAY; // clock low delay
   42460:	01000044 	movi	r4,1
   42464:	00536c00 	call	536c0 <usleep>
    SDA_LOW(data_base);  // data low
   42468:	e0bffd17 	ldw	r2,-12(fp)
   4246c:	0007883a 	mov	r3,zero
   42470:	10c00035 	stwio	r3,0(r2)
    SCL_DELAY; // data low delay
   42474:	01000044 	movi	r4,1
   42478:	00536c00 	call	536c0 <usleep>
//    SDA_DIR_IN;  // set data read mode
    
    *pData = Data;
   4247c:	e0bffe17 	ldw	r2,-8(fp)
   42480:	e0fffa03 	ldbu	r3,-24(fp)
   42484:	10c00005 	stb	r3,0(r2)
}
   42488:	0001883a 	nop
   4248c:	e037883a 	mov	sp,fp
   42490:	dfc00117 	ldw	ra,4(sp)
   42494:	df000017 	ldw	fp,0(sp)
   42498:	dec00204 	addi	sp,sp,8
   4249c:	f800283a 	ret

000424a0 <debug_output>:
    UART_WriteString(pMessage);  // UART debug
}

#else

void debug_output(char *pMessage){
   424a0:	defffd04 	addi	sp,sp,-12
   424a4:	dfc00215 	stw	ra,8(sp)
   424a8:	df000115 	stw	fp,4(sp)
   424ac:	df000104 	addi	fp,sp,4
   424b0:	e13fff15 	stw	r4,-4(fp)
    
    printf(pMessage);
   424b4:	e13fff17 	ldw	r4,-4(fp)
   424b8:	0043f000 	call	43f00 <printf>
}
   424bc:	0001883a 	nop
   424c0:	e037883a 	mov	sp,fp
   424c4:	dfc00117 	ldw	ra,4(sp)
   424c8:	df000017 	ldw	fp,0(sp)
   424cc:	dec00204 	addi	sp,sp,8
   424d0:	f800283a 	ret

000424d4 <myprintf>:





int myprintf(char *format, ...){
   424d4:	deff7804 	addi	sp,sp,-544
   424d8:	dfc08415 	stw	ra,528(sp)
   424dc:	df008315 	stw	fp,524(sp)
   424e0:	df008304 	addi	fp,sp,524
   424e4:	e13fff15 	stw	r4,-4(fp)
   424e8:	e1400215 	stw	r5,8(fp)
   424ec:	e1800315 	stw	r6,12(fp)
   424f0:	e1c00415 	stw	r7,16(fp)
    int rc;
    char szText[512];
    
    va_list paramList;
    va_start(paramList, format);
   424f4:	e0800204 	addi	r2,fp,8
   424f8:	e0bffe15 	stw	r2,-8(fp)
    rc = vsnprintf(szText, 512, format, paramList);
   424fc:	e0fffe17 	ldw	r3,-8(fp)
   42500:	e0bf7e04 	addi	r2,fp,-520
   42504:	180f883a 	mov	r7,r3
   42508:	e1bfff17 	ldw	r6,-4(fp)
   4250c:	01408004 	movi	r5,512
   42510:	1009883a 	mov	r4,r2
   42514:	00487040 	call	48704 <vsnprintf>
   42518:	e0bf7d15 	stw	r2,-524(fp)
    va_end(paramList);
    
    debug_output(szText);
   4251c:	e0bf7e04 	addi	r2,fp,-520
   42520:	1009883a 	mov	r4,r2
   42524:	00424a00 	call	424a0 <debug_output>

    return rc;    
   42528:	e0bf7d17 	ldw	r2,-524(fp)
}
   4252c:	e037883a 	mov	sp,fp
   42530:	dfc00117 	ldw	ra,4(sp)
   42534:	df000017 	ldw	fp,0(sp)
   42538:	dec00504 	addi	sp,sp,20
   4253c:	f800283a 	ret

00042540 <myprintf_hexarray>:


int myprintf_hexarray(unsigned char *pHex, int len){
   42540:	defff704 	addi	sp,sp,-36
   42544:	dfc00815 	stw	ra,32(sp)
   42548:	df000715 	stw	fp,28(sp)
   4254c:	df000704 	addi	fp,sp,28
   42550:	e13ffe15 	stw	r4,-8(fp)
   42554:	e17fff15 	stw	r5,-4(fp)
    int i;
    unsigned char szText[16];
    for(i=0;i<len;i++){
   42558:	e03ff915 	stw	zero,-28(fp)
   4255c:	00001106 	br	425a4 <myprintf_hexarray+0x64>
        sprintf(szText, "[%02X]", *(pHex+i));
   42560:	e0bff917 	ldw	r2,-28(fp)
   42564:	e0fffe17 	ldw	r3,-8(fp)
   42568:	1885883a 	add	r2,r3,r2
   4256c:	10800003 	ldbu	r2,0(r2)
   42570:	10c03fcc 	andi	r3,r2,255
   42574:	e0bffa04 	addi	r2,fp,-24
   42578:	180d883a 	mov	r6,r3
   4257c:	01400174 	movhi	r5,5
   42580:	2956f604 	addi	r5,r5,23512
   42584:	1009883a 	mov	r4,r2
   42588:	00440680 	call	44068 <sprintf>
        DEBUG((szText));
   4258c:	e0bffa04 	addi	r2,fp,-24
   42590:	1009883a 	mov	r4,r2
   42594:	00424d40 	call	424d4 <myprintf>


int myprintf_hexarray(unsigned char *pHex, int len){
    int i;
    unsigned char szText[16];
    for(i=0;i<len;i++){
   42598:	e0bff917 	ldw	r2,-28(fp)
   4259c:	10800044 	addi	r2,r2,1
   425a0:	e0bff915 	stw	r2,-28(fp)
   425a4:	e0fff917 	ldw	r3,-28(fp)
   425a8:	e0bfff17 	ldw	r2,-4(fp)
   425ac:	18bfec16 	blt	r3,r2,42560 <__alt_data_end+0xfffc3d60>
        sprintf(szText, "[%02X]", *(pHex+i));
        DEBUG((szText));
    }
    return len;
   425b0:	e0bfff17 	ldw	r2,-4(fp)
}
   425b4:	e037883a 	mov	sp,fp
   425b8:	dfc00117 	ldw	ra,4(sp)
   425bc:	df000017 	ldw	fp,0(sp)
   425c0:	dec00204 	addi	sp,sp,8
   425c4:	f800283a 	ret

000425c8 <myprintf_dwordarray>:

int  myprintf_dwordarray(unsigned int *pArray, int nElementCount){
   425c8:	defff704 	addi	sp,sp,-36
   425cc:	dfc00815 	stw	ra,32(sp)
   425d0:	df000715 	stw	fp,28(sp)
   425d4:	df000704 	addi	fp,sp,28
   425d8:	e13ffe15 	stw	r4,-8(fp)
   425dc:	e17fff15 	stw	r5,-4(fp)
    int i;
    char szText[16];
    for(i=0;i<nElementCount;i++){
   425e0:	e03ff915 	stw	zero,-28(fp)
   425e4:	00001306 	br	42634 <myprintf_dwordarray+0x6c>
        sprintf(szText, "[%08X]", *(pArray+i));
   425e8:	e0bff917 	ldw	r2,-28(fp)
   425ec:	1085883a 	add	r2,r2,r2
   425f0:	1085883a 	add	r2,r2,r2
   425f4:	1007883a 	mov	r3,r2
   425f8:	e0bffe17 	ldw	r2,-8(fp)
   425fc:	10c5883a 	add	r2,r2,r3
   42600:	10c00017 	ldw	r3,0(r2)
   42604:	e0bffa04 	addi	r2,fp,-24
   42608:	180d883a 	mov	r6,r3
   4260c:	01400174 	movhi	r5,5
   42610:	2956f804 	addi	r5,r5,23520
   42614:	1009883a 	mov	r4,r2
   42618:	00440680 	call	44068 <sprintf>
        DEBUG((szText));
   4261c:	e0bffa04 	addi	r2,fp,-24
   42620:	1009883a 	mov	r4,r2
   42624:	00424d40 	call	424d4 <myprintf>
}

int  myprintf_dwordarray(unsigned int *pArray, int nElementCount){
    int i;
    char szText[16];
    for(i=0;i<nElementCount;i++){
   42628:	e0bff917 	ldw	r2,-28(fp)
   4262c:	10800044 	addi	r2,r2,1
   42630:	e0bff915 	stw	r2,-28(fp)
   42634:	e0fff917 	ldw	r3,-28(fp)
   42638:	e0bfff17 	ldw	r2,-4(fp)
   4263c:	18bfea16 	blt	r3,r2,425e8 <__alt_data_end+0xfffc3de8>
        sprintf(szText, "[%08X]", *(pArray+i));
        DEBUG((szText));
    }
    return nElementCount;
   42640:	e0bfff17 	ldw	r2,-4(fp)
}
   42644:	e037883a 	mov	sp,fp
   42648:	dfc00117 	ldw	ra,4(sp)
   4264c:	df000017 	ldw	fp,0(sp)
   42650:	dec00204 	addi	sp,sp,8
   42654:	f800283a 	ret

00042658 <__floatsisf>:
   42658:	defffd04 	addi	sp,sp,-12
   4265c:	dfc00215 	stw	ra,8(sp)
   42660:	dc400115 	stw	r17,4(sp)
   42664:	dc000015 	stw	r16,0(sp)
   42668:	20003526 	beq	r4,zero,42740 <__floatsisf+0xe8>
   4266c:	2021883a 	mov	r16,r4
   42670:	2022d7fa 	srli	r17,r4,31
   42674:	20003616 	blt	r4,zero,42750 <__floatsisf+0xf8>
   42678:	8009883a 	mov	r4,r16
   4267c:	0043cb80 	call	43cb8 <__clzsi2>
   42680:	00c02784 	movi	r3,158
   42684:	1887c83a 	sub	r3,r3,r2
   42688:	01002584 	movi	r4,150
   4268c:	20c01416 	blt	r4,r3,426e0 <__floatsisf+0x88>
   42690:	20c9c83a 	sub	r4,r4,r3
   42694:	8120983a 	sll	r16,r16,r4
   42698:	00802034 	movhi	r2,128
   4269c:	10bfffc4 	addi	r2,r2,-1
   426a0:	8809883a 	mov	r4,r17
   426a4:	80a0703a 	and	r16,r16,r2
   426a8:	18803fcc 	andi	r2,r3,255
   426ac:	100695fa 	slli	r3,r2,23
   426b0:	20803fcc 	andi	r2,r4,255
   426b4:	100897fa 	slli	r4,r2,31
   426b8:	00802034 	movhi	r2,128
   426bc:	10bfffc4 	addi	r2,r2,-1
   426c0:	8084703a 	and	r2,r16,r2
   426c4:	10c4b03a 	or	r2,r2,r3
   426c8:	1104b03a 	or	r2,r2,r4
   426cc:	dfc00217 	ldw	ra,8(sp)
   426d0:	dc400117 	ldw	r17,4(sp)
   426d4:	dc000017 	ldw	r16,0(sp)
   426d8:	dec00304 	addi	sp,sp,12
   426dc:	f800283a 	ret
   426e0:	01002644 	movi	r4,153
   426e4:	20c01c16 	blt	r4,r3,42758 <__floatsisf+0x100>
   426e8:	20c9c83a 	sub	r4,r4,r3
   426ec:	8120983a 	sll	r16,r16,r4
   426f0:	013f0034 	movhi	r4,64512
   426f4:	213fffc4 	addi	r4,r4,-1
   426f8:	814001cc 	andi	r5,r16,7
   426fc:	8108703a 	and	r4,r16,r4
   42700:	28000426 	beq	r5,zero,42714 <__floatsisf+0xbc>
   42704:	840003cc 	andi	r16,r16,15
   42708:	01400104 	movi	r5,4
   4270c:	81400126 	beq	r16,r5,42714 <__floatsisf+0xbc>
   42710:	2149883a 	add	r4,r4,r5
   42714:	2141002c 	andhi	r5,r4,1024
   42718:	28000526 	beq	r5,zero,42730 <__floatsisf+0xd8>
   4271c:	00c027c4 	movi	r3,159
   42720:	1887c83a 	sub	r3,r3,r2
   42724:	00bf0034 	movhi	r2,64512
   42728:	10bfffc4 	addi	r2,r2,-1
   4272c:	2088703a 	and	r4,r4,r2
   42730:	202091ba 	slli	r16,r4,6
   42734:	8809883a 	mov	r4,r17
   42738:	8020d27a 	srli	r16,r16,9
   4273c:	003fda06 	br	426a8 <__alt_data_end+0xfffc3ea8>
   42740:	0009883a 	mov	r4,zero
   42744:	0007883a 	mov	r3,zero
   42748:	0021883a 	mov	r16,zero
   4274c:	003fd606 	br	426a8 <__alt_data_end+0xfffc3ea8>
   42750:	0121c83a 	sub	r16,zero,r4
   42754:	003fc806 	br	42678 <__alt_data_end+0xfffc3e78>
   42758:	01002e44 	movi	r4,185
   4275c:	20c9c83a 	sub	r4,r4,r3
   42760:	01400144 	movi	r5,5
   42764:	8108983a 	sll	r4,r16,r4
   42768:	288bc83a 	sub	r5,r5,r2
   4276c:	8160d83a 	srl	r16,r16,r5
   42770:	2008c03a 	cmpne	r4,r4,zero
   42774:	8120b03a 	or	r16,r16,r4
   42778:	003fdd06 	br	426f0 <__alt_data_end+0xfffc3ef0>

0004277c <__floatunsisf>:
   4277c:	defffe04 	addi	sp,sp,-8
   42780:	dfc00115 	stw	ra,4(sp)
   42784:	dc000015 	stw	r16,0(sp)
   42788:	20002c26 	beq	r4,zero,4283c <__floatunsisf+0xc0>
   4278c:	2021883a 	mov	r16,r4
   42790:	0043cb80 	call	43cb8 <__clzsi2>
   42794:	00c02784 	movi	r3,158
   42798:	1887c83a 	sub	r3,r3,r2
   4279c:	01002584 	movi	r4,150
   427a0:	20c00f16 	blt	r4,r3,427e0 <__floatunsisf+0x64>
   427a4:	20c9c83a 	sub	r4,r4,r3
   427a8:	8108983a 	sll	r4,r16,r4
   427ac:	00802034 	movhi	r2,128
   427b0:	10bfffc4 	addi	r2,r2,-1
   427b4:	2088703a 	and	r4,r4,r2
   427b8:	18803fcc 	andi	r2,r3,255
   427bc:	100695fa 	slli	r3,r2,23
   427c0:	00802034 	movhi	r2,128
   427c4:	10bfffc4 	addi	r2,r2,-1
   427c8:	2084703a 	and	r2,r4,r2
   427cc:	10c4b03a 	or	r2,r2,r3
   427d0:	dfc00117 	ldw	ra,4(sp)
   427d4:	dc000017 	ldw	r16,0(sp)
   427d8:	dec00204 	addi	sp,sp,8
   427dc:	f800283a 	ret
   427e0:	01002644 	movi	r4,153
   427e4:	20c01816 	blt	r4,r3,42848 <__floatunsisf+0xcc>
   427e8:	20c9c83a 	sub	r4,r4,r3
   427ec:	8108983a 	sll	r4,r16,r4
   427f0:	017f0034 	movhi	r5,64512
   427f4:	297fffc4 	addi	r5,r5,-1
   427f8:	218001cc 	andi	r6,r4,7
   427fc:	214a703a 	and	r5,r4,r5
   42800:	30000426 	beq	r6,zero,42814 <__floatunsisf+0x98>
   42804:	210003cc 	andi	r4,r4,15
   42808:	01800104 	movi	r6,4
   4280c:	21800126 	beq	r4,r6,42814 <__floatunsisf+0x98>
   42810:	298b883a 	add	r5,r5,r6
   42814:	2901002c 	andhi	r4,r5,1024
   42818:	20000526 	beq	r4,zero,42830 <__floatunsisf+0xb4>
   4281c:	00c027c4 	movi	r3,159
   42820:	1887c83a 	sub	r3,r3,r2
   42824:	00bf0034 	movhi	r2,64512
   42828:	10bfffc4 	addi	r2,r2,-1
   4282c:	288a703a 	and	r5,r5,r2
   42830:	280891ba 	slli	r4,r5,6
   42834:	2008d27a 	srli	r4,r4,9
   42838:	003fdf06 	br	427b8 <__alt_data_end+0xfffc3fb8>
   4283c:	0007883a 	mov	r3,zero
   42840:	0009883a 	mov	r4,zero
   42844:	003fdc06 	br	427b8 <__alt_data_end+0xfffc3fb8>
   42848:	01402e44 	movi	r5,185
   4284c:	28cbc83a 	sub	r5,r5,r3
   42850:	01000144 	movi	r4,5
   42854:	2089c83a 	sub	r4,r4,r2
   42858:	814a983a 	sll	r5,r16,r5
   4285c:	8108d83a 	srl	r4,r16,r4
   42860:	2820c03a 	cmpne	r16,r5,zero
   42864:	2408b03a 	or	r4,r4,r16
   42868:	003fe106 	br	427f0 <__alt_data_end+0xfffc3ff0>

0004286c <__adddf3>:
   4286c:	02c00434 	movhi	r11,16
   42870:	5affffc4 	addi	r11,r11,-1
   42874:	2806d7fa 	srli	r3,r5,31
   42878:	2ad4703a 	and	r10,r5,r11
   4287c:	3ad2703a 	and	r9,r7,r11
   42880:	3804d53a 	srli	r2,r7,20
   42884:	3018d77a 	srli	r12,r6,29
   42888:	280ad53a 	srli	r5,r5,20
   4288c:	501490fa 	slli	r10,r10,3
   42890:	2010d77a 	srli	r8,r4,29
   42894:	481290fa 	slli	r9,r9,3
   42898:	380ed7fa 	srli	r7,r7,31
   4289c:	defffb04 	addi	sp,sp,-20
   428a0:	dc800215 	stw	r18,8(sp)
   428a4:	dc400115 	stw	r17,4(sp)
   428a8:	dc000015 	stw	r16,0(sp)
   428ac:	dfc00415 	stw	ra,16(sp)
   428b0:	dcc00315 	stw	r19,12(sp)
   428b4:	1c803fcc 	andi	r18,r3,255
   428b8:	2c01ffcc 	andi	r16,r5,2047
   428bc:	5210b03a 	or	r8,r10,r8
   428c0:	202290fa 	slli	r17,r4,3
   428c4:	1081ffcc 	andi	r2,r2,2047
   428c8:	4b12b03a 	or	r9,r9,r12
   428cc:	300c90fa 	slli	r6,r6,3
   428d0:	91c07526 	beq	r18,r7,42aa8 <__adddf3+0x23c>
   428d4:	8087c83a 	sub	r3,r16,r2
   428d8:	00c0ab0e 	bge	zero,r3,42b88 <__adddf3+0x31c>
   428dc:	10002a1e 	bne	r2,zero,42988 <__adddf3+0x11c>
   428e0:	4984b03a 	or	r2,r9,r6
   428e4:	1000961e 	bne	r2,zero,42b40 <__adddf3+0x2d4>
   428e8:	888001cc 	andi	r2,r17,7
   428ec:	10000726 	beq	r2,zero,4290c <__adddf3+0xa0>
   428f0:	888003cc 	andi	r2,r17,15
   428f4:	00c00104 	movi	r3,4
   428f8:	10c00426 	beq	r2,r3,4290c <__adddf3+0xa0>
   428fc:	88c7883a 	add	r3,r17,r3
   42900:	1c63803a 	cmpltu	r17,r3,r17
   42904:	4451883a 	add	r8,r8,r17
   42908:	1823883a 	mov	r17,r3
   4290c:	4080202c 	andhi	r2,r8,128
   42910:	10005926 	beq	r2,zero,42a78 <__adddf3+0x20c>
   42914:	84000044 	addi	r16,r16,1
   42918:	0081ffc4 	movi	r2,2047
   4291c:	8080ba26 	beq	r16,r2,42c08 <__adddf3+0x39c>
   42920:	00bfe034 	movhi	r2,65408
   42924:	10bfffc4 	addi	r2,r2,-1
   42928:	4090703a 	and	r8,r8,r2
   4292c:	4004977a 	slli	r2,r8,29
   42930:	4010927a 	slli	r8,r8,9
   42934:	8822d0fa 	srli	r17,r17,3
   42938:	8401ffcc 	andi	r16,r16,2047
   4293c:	4010d33a 	srli	r8,r8,12
   42940:	9007883a 	mov	r3,r18
   42944:	1444b03a 	or	r2,r2,r17
   42948:	8401ffcc 	andi	r16,r16,2047
   4294c:	8020953a 	slli	r16,r16,20
   42950:	18c03fcc 	andi	r3,r3,255
   42954:	01000434 	movhi	r4,16
   42958:	213fffc4 	addi	r4,r4,-1
   4295c:	180697fa 	slli	r3,r3,31
   42960:	4110703a 	and	r8,r8,r4
   42964:	4410b03a 	or	r8,r8,r16
   42968:	40c6b03a 	or	r3,r8,r3
   4296c:	dfc00417 	ldw	ra,16(sp)
   42970:	dcc00317 	ldw	r19,12(sp)
   42974:	dc800217 	ldw	r18,8(sp)
   42978:	dc400117 	ldw	r17,4(sp)
   4297c:	dc000017 	ldw	r16,0(sp)
   42980:	dec00504 	addi	sp,sp,20
   42984:	f800283a 	ret
   42988:	0081ffc4 	movi	r2,2047
   4298c:	80bfd626 	beq	r16,r2,428e8 <__alt_data_end+0xfffc40e8>
   42990:	4a402034 	orhi	r9,r9,128
   42994:	00800e04 	movi	r2,56
   42998:	10c09f16 	blt	r2,r3,42c18 <__adddf3+0x3ac>
   4299c:	008007c4 	movi	r2,31
   429a0:	10c0c216 	blt	r2,r3,42cac <__adddf3+0x440>
   429a4:	00800804 	movi	r2,32
   429a8:	10c5c83a 	sub	r2,r2,r3
   429ac:	488a983a 	sll	r5,r9,r2
   429b0:	30c8d83a 	srl	r4,r6,r3
   429b4:	3084983a 	sll	r2,r6,r2
   429b8:	48c6d83a 	srl	r3,r9,r3
   429bc:	290cb03a 	or	r6,r5,r4
   429c0:	1004c03a 	cmpne	r2,r2,zero
   429c4:	308cb03a 	or	r6,r6,r2
   429c8:	898dc83a 	sub	r6,r17,r6
   429cc:	89a3803a 	cmpltu	r17,r17,r6
   429d0:	40d1c83a 	sub	r8,r8,r3
   429d4:	4451c83a 	sub	r8,r8,r17
   429d8:	3023883a 	mov	r17,r6
   429dc:	4080202c 	andhi	r2,r8,128
   429e0:	10002326 	beq	r2,zero,42a70 <__adddf3+0x204>
   429e4:	04c02034 	movhi	r19,128
   429e8:	9cffffc4 	addi	r19,r19,-1
   429ec:	44e6703a 	and	r19,r8,r19
   429f0:	98007626 	beq	r19,zero,42bcc <__adddf3+0x360>
   429f4:	9809883a 	mov	r4,r19
   429f8:	0043cb80 	call	43cb8 <__clzsi2>
   429fc:	10fffe04 	addi	r3,r2,-8
   42a00:	010007c4 	movi	r4,31
   42a04:	20c07716 	blt	r4,r3,42be4 <__adddf3+0x378>
   42a08:	00800804 	movi	r2,32
   42a0c:	10c5c83a 	sub	r2,r2,r3
   42a10:	8884d83a 	srl	r2,r17,r2
   42a14:	98d0983a 	sll	r8,r19,r3
   42a18:	88e2983a 	sll	r17,r17,r3
   42a1c:	1204b03a 	or	r2,r2,r8
   42a20:	1c007416 	blt	r3,r16,42bf4 <__adddf3+0x388>
   42a24:	1c21c83a 	sub	r16,r3,r16
   42a28:	82000044 	addi	r8,r16,1
   42a2c:	00c007c4 	movi	r3,31
   42a30:	1a009116 	blt	r3,r8,42c78 <__adddf3+0x40c>
   42a34:	00c00804 	movi	r3,32
   42a38:	1a07c83a 	sub	r3,r3,r8
   42a3c:	8a08d83a 	srl	r4,r17,r8
   42a40:	88e2983a 	sll	r17,r17,r3
   42a44:	10c6983a 	sll	r3,r2,r3
   42a48:	1210d83a 	srl	r8,r2,r8
   42a4c:	8804c03a 	cmpne	r2,r17,zero
   42a50:	1906b03a 	or	r3,r3,r4
   42a54:	18a2b03a 	or	r17,r3,r2
   42a58:	0021883a 	mov	r16,zero
   42a5c:	003fa206 	br	428e8 <__alt_data_end+0xfffc40e8>
   42a60:	1890b03a 	or	r8,r3,r2
   42a64:	40017d26 	beq	r8,zero,4305c <__adddf3+0x7f0>
   42a68:	1011883a 	mov	r8,r2
   42a6c:	1823883a 	mov	r17,r3
   42a70:	888001cc 	andi	r2,r17,7
   42a74:	103f9e1e 	bne	r2,zero,428f0 <__alt_data_end+0xfffc40f0>
   42a78:	4004977a 	slli	r2,r8,29
   42a7c:	8822d0fa 	srli	r17,r17,3
   42a80:	4010d0fa 	srli	r8,r8,3
   42a84:	9007883a 	mov	r3,r18
   42a88:	1444b03a 	or	r2,r2,r17
   42a8c:	0101ffc4 	movi	r4,2047
   42a90:	81002426 	beq	r16,r4,42b24 <__adddf3+0x2b8>
   42a94:	8120703a 	and	r16,r16,r4
   42a98:	01000434 	movhi	r4,16
   42a9c:	213fffc4 	addi	r4,r4,-1
   42aa0:	4110703a 	and	r8,r8,r4
   42aa4:	003fa806 	br	42948 <__alt_data_end+0xfffc4148>
   42aa8:	8089c83a 	sub	r4,r16,r2
   42aac:	01005e0e 	bge	zero,r4,42c28 <__adddf3+0x3bc>
   42ab0:	10002b26 	beq	r2,zero,42b60 <__adddf3+0x2f4>
   42ab4:	0081ffc4 	movi	r2,2047
   42ab8:	80bf8b26 	beq	r16,r2,428e8 <__alt_data_end+0xfffc40e8>
   42abc:	4a402034 	orhi	r9,r9,128
   42ac0:	00800e04 	movi	r2,56
   42ac4:	1100a40e 	bge	r2,r4,42d58 <__adddf3+0x4ec>
   42ac8:	498cb03a 	or	r6,r9,r6
   42acc:	300ac03a 	cmpne	r5,r6,zero
   42ad0:	0013883a 	mov	r9,zero
   42ad4:	2c4b883a 	add	r5,r5,r17
   42ad8:	2c63803a 	cmpltu	r17,r5,r17
   42adc:	4a11883a 	add	r8,r9,r8
   42ae0:	8a11883a 	add	r8,r17,r8
   42ae4:	2823883a 	mov	r17,r5
   42ae8:	4080202c 	andhi	r2,r8,128
   42aec:	103fe026 	beq	r2,zero,42a70 <__alt_data_end+0xfffc4270>
   42af0:	84000044 	addi	r16,r16,1
   42af4:	0081ffc4 	movi	r2,2047
   42af8:	8080d226 	beq	r16,r2,42e44 <__adddf3+0x5d8>
   42afc:	00bfe034 	movhi	r2,65408
   42b00:	10bfffc4 	addi	r2,r2,-1
   42b04:	4090703a 	and	r8,r8,r2
   42b08:	880ad07a 	srli	r5,r17,1
   42b0c:	400897fa 	slli	r4,r8,31
   42b10:	88c0004c 	andi	r3,r17,1
   42b14:	28e2b03a 	or	r17,r5,r3
   42b18:	4010d07a 	srli	r8,r8,1
   42b1c:	2462b03a 	or	r17,r4,r17
   42b20:	003f7106 	br	428e8 <__alt_data_end+0xfffc40e8>
   42b24:	4088b03a 	or	r4,r8,r2
   42b28:	20014526 	beq	r4,zero,43040 <__adddf3+0x7d4>
   42b2c:	01000434 	movhi	r4,16
   42b30:	42000234 	orhi	r8,r8,8
   42b34:	213fffc4 	addi	r4,r4,-1
   42b38:	4110703a 	and	r8,r8,r4
   42b3c:	003f8206 	br	42948 <__alt_data_end+0xfffc4148>
   42b40:	18ffffc4 	addi	r3,r3,-1
   42b44:	1800491e 	bne	r3,zero,42c6c <__adddf3+0x400>
   42b48:	898bc83a 	sub	r5,r17,r6
   42b4c:	8963803a 	cmpltu	r17,r17,r5
   42b50:	4251c83a 	sub	r8,r8,r9
   42b54:	4451c83a 	sub	r8,r8,r17
   42b58:	2823883a 	mov	r17,r5
   42b5c:	003f9f06 	br	429dc <__alt_data_end+0xfffc41dc>
   42b60:	4984b03a 	or	r2,r9,r6
   42b64:	103f6026 	beq	r2,zero,428e8 <__alt_data_end+0xfffc40e8>
   42b68:	213fffc4 	addi	r4,r4,-1
   42b6c:	2000931e 	bne	r4,zero,42dbc <__adddf3+0x550>
   42b70:	898d883a 	add	r6,r17,r6
   42b74:	3463803a 	cmpltu	r17,r6,r17
   42b78:	4251883a 	add	r8,r8,r9
   42b7c:	8a11883a 	add	r8,r17,r8
   42b80:	3023883a 	mov	r17,r6
   42b84:	003fd806 	br	42ae8 <__alt_data_end+0xfffc42e8>
   42b88:	1800541e 	bne	r3,zero,42cdc <__adddf3+0x470>
   42b8c:	80800044 	addi	r2,r16,1
   42b90:	1081ffcc 	andi	r2,r2,2047
   42b94:	00c00044 	movi	r3,1
   42b98:	1880a00e 	bge	r3,r2,42e1c <__adddf3+0x5b0>
   42b9c:	8989c83a 	sub	r4,r17,r6
   42ba0:	8905803a 	cmpltu	r2,r17,r4
   42ba4:	4267c83a 	sub	r19,r8,r9
   42ba8:	98a7c83a 	sub	r19,r19,r2
   42bac:	9880202c 	andhi	r2,r19,128
   42bb0:	10006326 	beq	r2,zero,42d40 <__adddf3+0x4d4>
   42bb4:	3463c83a 	sub	r17,r6,r17
   42bb8:	4a07c83a 	sub	r3,r9,r8
   42bbc:	344d803a 	cmpltu	r6,r6,r17
   42bc0:	19a7c83a 	sub	r19,r3,r6
   42bc4:	3825883a 	mov	r18,r7
   42bc8:	983f8a1e 	bne	r19,zero,429f4 <__alt_data_end+0xfffc41f4>
   42bcc:	8809883a 	mov	r4,r17
   42bd0:	0043cb80 	call	43cb8 <__clzsi2>
   42bd4:	10800804 	addi	r2,r2,32
   42bd8:	10fffe04 	addi	r3,r2,-8
   42bdc:	010007c4 	movi	r4,31
   42be0:	20ff890e 	bge	r4,r3,42a08 <__alt_data_end+0xfffc4208>
   42be4:	10bff604 	addi	r2,r2,-40
   42be8:	8884983a 	sll	r2,r17,r2
   42bec:	0023883a 	mov	r17,zero
   42bf0:	1c3f8c0e 	bge	r3,r16,42a24 <__alt_data_end+0xfffc4224>
   42bf4:	023fe034 	movhi	r8,65408
   42bf8:	423fffc4 	addi	r8,r8,-1
   42bfc:	80e1c83a 	sub	r16,r16,r3
   42c00:	1210703a 	and	r8,r2,r8
   42c04:	003f3806 	br	428e8 <__alt_data_end+0xfffc40e8>
   42c08:	9007883a 	mov	r3,r18
   42c0c:	0011883a 	mov	r8,zero
   42c10:	0005883a 	mov	r2,zero
   42c14:	003f4c06 	br	42948 <__alt_data_end+0xfffc4148>
   42c18:	498cb03a 	or	r6,r9,r6
   42c1c:	300cc03a 	cmpne	r6,r6,zero
   42c20:	0007883a 	mov	r3,zero
   42c24:	003f6806 	br	429c8 <__alt_data_end+0xfffc41c8>
   42c28:	20009c1e 	bne	r4,zero,42e9c <__adddf3+0x630>
   42c2c:	80800044 	addi	r2,r16,1
   42c30:	1141ffcc 	andi	r5,r2,2047
   42c34:	01000044 	movi	r4,1
   42c38:	2140670e 	bge	r4,r5,42dd8 <__adddf3+0x56c>
   42c3c:	0101ffc4 	movi	r4,2047
   42c40:	11007f26 	beq	r2,r4,42e40 <__adddf3+0x5d4>
   42c44:	898d883a 	add	r6,r17,r6
   42c48:	4247883a 	add	r3,r8,r9
   42c4c:	3451803a 	cmpltu	r8,r6,r17
   42c50:	40d1883a 	add	r8,r8,r3
   42c54:	402297fa 	slli	r17,r8,31
   42c58:	300cd07a 	srli	r6,r6,1
   42c5c:	4010d07a 	srli	r8,r8,1
   42c60:	1021883a 	mov	r16,r2
   42c64:	89a2b03a 	or	r17,r17,r6
   42c68:	003f1f06 	br	428e8 <__alt_data_end+0xfffc40e8>
   42c6c:	0081ffc4 	movi	r2,2047
   42c70:	80bf481e 	bne	r16,r2,42994 <__alt_data_end+0xfffc4194>
   42c74:	003f1c06 	br	428e8 <__alt_data_end+0xfffc40e8>
   42c78:	843ff844 	addi	r16,r16,-31
   42c7c:	01000804 	movi	r4,32
   42c80:	1406d83a 	srl	r3,r2,r16
   42c84:	41005026 	beq	r8,r4,42dc8 <__adddf3+0x55c>
   42c88:	01001004 	movi	r4,64
   42c8c:	2211c83a 	sub	r8,r4,r8
   42c90:	1204983a 	sll	r2,r2,r8
   42c94:	88a2b03a 	or	r17,r17,r2
   42c98:	8822c03a 	cmpne	r17,r17,zero
   42c9c:	1c62b03a 	or	r17,r3,r17
   42ca0:	0011883a 	mov	r8,zero
   42ca4:	0021883a 	mov	r16,zero
   42ca8:	003f7106 	br	42a70 <__alt_data_end+0xfffc4270>
   42cac:	193ff804 	addi	r4,r3,-32
   42cb0:	00800804 	movi	r2,32
   42cb4:	4908d83a 	srl	r4,r9,r4
   42cb8:	18804526 	beq	r3,r2,42dd0 <__adddf3+0x564>
   42cbc:	00801004 	movi	r2,64
   42cc0:	10c5c83a 	sub	r2,r2,r3
   42cc4:	4886983a 	sll	r3,r9,r2
   42cc8:	198cb03a 	or	r6,r3,r6
   42ccc:	300cc03a 	cmpne	r6,r6,zero
   42cd0:	218cb03a 	or	r6,r4,r6
   42cd4:	0007883a 	mov	r3,zero
   42cd8:	003f3b06 	br	429c8 <__alt_data_end+0xfffc41c8>
   42cdc:	80002a26 	beq	r16,zero,42d88 <__adddf3+0x51c>
   42ce0:	0101ffc4 	movi	r4,2047
   42ce4:	11006826 	beq	r2,r4,42e88 <__adddf3+0x61c>
   42ce8:	00c7c83a 	sub	r3,zero,r3
   42cec:	42002034 	orhi	r8,r8,128
   42cf0:	01000e04 	movi	r4,56
   42cf4:	20c07c16 	blt	r4,r3,42ee8 <__adddf3+0x67c>
   42cf8:	010007c4 	movi	r4,31
   42cfc:	20c0da16 	blt	r4,r3,43068 <__adddf3+0x7fc>
   42d00:	01000804 	movi	r4,32
   42d04:	20c9c83a 	sub	r4,r4,r3
   42d08:	4114983a 	sll	r10,r8,r4
   42d0c:	88cad83a 	srl	r5,r17,r3
   42d10:	8908983a 	sll	r4,r17,r4
   42d14:	40c6d83a 	srl	r3,r8,r3
   42d18:	5162b03a 	or	r17,r10,r5
   42d1c:	2008c03a 	cmpne	r4,r4,zero
   42d20:	8922b03a 	or	r17,r17,r4
   42d24:	3463c83a 	sub	r17,r6,r17
   42d28:	48c7c83a 	sub	r3,r9,r3
   42d2c:	344d803a 	cmpltu	r6,r6,r17
   42d30:	1991c83a 	sub	r8,r3,r6
   42d34:	1021883a 	mov	r16,r2
   42d38:	3825883a 	mov	r18,r7
   42d3c:	003f2706 	br	429dc <__alt_data_end+0xfffc41dc>
   42d40:	24d0b03a 	or	r8,r4,r19
   42d44:	40001b1e 	bne	r8,zero,42db4 <__adddf3+0x548>
   42d48:	0005883a 	mov	r2,zero
   42d4c:	0007883a 	mov	r3,zero
   42d50:	0021883a 	mov	r16,zero
   42d54:	003f4d06 	br	42a8c <__alt_data_end+0xfffc428c>
   42d58:	008007c4 	movi	r2,31
   42d5c:	11003c16 	blt	r2,r4,42e50 <__adddf3+0x5e4>
   42d60:	00800804 	movi	r2,32
   42d64:	1105c83a 	sub	r2,r2,r4
   42d68:	488e983a 	sll	r7,r9,r2
   42d6c:	310ad83a 	srl	r5,r6,r4
   42d70:	3084983a 	sll	r2,r6,r2
   42d74:	4912d83a 	srl	r9,r9,r4
   42d78:	394ab03a 	or	r5,r7,r5
   42d7c:	1004c03a 	cmpne	r2,r2,zero
   42d80:	288ab03a 	or	r5,r5,r2
   42d84:	003f5306 	br	42ad4 <__alt_data_end+0xfffc42d4>
   42d88:	4448b03a 	or	r4,r8,r17
   42d8c:	20003e26 	beq	r4,zero,42e88 <__adddf3+0x61c>
   42d90:	00c6303a 	nor	r3,zero,r3
   42d94:	18003a1e 	bne	r3,zero,42e80 <__adddf3+0x614>
   42d98:	3463c83a 	sub	r17,r6,r17
   42d9c:	4a07c83a 	sub	r3,r9,r8
   42da0:	344d803a 	cmpltu	r6,r6,r17
   42da4:	1991c83a 	sub	r8,r3,r6
   42da8:	1021883a 	mov	r16,r2
   42dac:	3825883a 	mov	r18,r7
   42db0:	003f0a06 	br	429dc <__alt_data_end+0xfffc41dc>
   42db4:	2023883a 	mov	r17,r4
   42db8:	003f0d06 	br	429f0 <__alt_data_end+0xfffc41f0>
   42dbc:	0081ffc4 	movi	r2,2047
   42dc0:	80bf3f1e 	bne	r16,r2,42ac0 <__alt_data_end+0xfffc42c0>
   42dc4:	003ec806 	br	428e8 <__alt_data_end+0xfffc40e8>
   42dc8:	0005883a 	mov	r2,zero
   42dcc:	003fb106 	br	42c94 <__alt_data_end+0xfffc4494>
   42dd0:	0007883a 	mov	r3,zero
   42dd4:	003fbc06 	br	42cc8 <__alt_data_end+0xfffc44c8>
   42dd8:	4444b03a 	or	r2,r8,r17
   42ddc:	8000871e 	bne	r16,zero,42ffc <__adddf3+0x790>
   42de0:	1000ba26 	beq	r2,zero,430cc <__adddf3+0x860>
   42de4:	4984b03a 	or	r2,r9,r6
   42de8:	103ebf26 	beq	r2,zero,428e8 <__alt_data_end+0xfffc40e8>
   42dec:	8985883a 	add	r2,r17,r6
   42df0:	4247883a 	add	r3,r8,r9
   42df4:	1451803a 	cmpltu	r8,r2,r17
   42df8:	40d1883a 	add	r8,r8,r3
   42dfc:	40c0202c 	andhi	r3,r8,128
   42e00:	1023883a 	mov	r17,r2
   42e04:	183f1a26 	beq	r3,zero,42a70 <__alt_data_end+0xfffc4270>
   42e08:	00bfe034 	movhi	r2,65408
   42e0c:	10bfffc4 	addi	r2,r2,-1
   42e10:	2021883a 	mov	r16,r4
   42e14:	4090703a 	and	r8,r8,r2
   42e18:	003eb306 	br	428e8 <__alt_data_end+0xfffc40e8>
   42e1c:	4444b03a 	or	r2,r8,r17
   42e20:	8000291e 	bne	r16,zero,42ec8 <__adddf3+0x65c>
   42e24:	10004b1e 	bne	r2,zero,42f54 <__adddf3+0x6e8>
   42e28:	4990b03a 	or	r8,r9,r6
   42e2c:	40008b26 	beq	r8,zero,4305c <__adddf3+0x7f0>
   42e30:	4811883a 	mov	r8,r9
   42e34:	3023883a 	mov	r17,r6
   42e38:	3825883a 	mov	r18,r7
   42e3c:	003eaa06 	br	428e8 <__alt_data_end+0xfffc40e8>
   42e40:	1021883a 	mov	r16,r2
   42e44:	0011883a 	mov	r8,zero
   42e48:	0005883a 	mov	r2,zero
   42e4c:	003f0f06 	br	42a8c <__alt_data_end+0xfffc428c>
   42e50:	217ff804 	addi	r5,r4,-32
   42e54:	00800804 	movi	r2,32
   42e58:	494ad83a 	srl	r5,r9,r5
   42e5c:	20807d26 	beq	r4,r2,43054 <__adddf3+0x7e8>
   42e60:	00801004 	movi	r2,64
   42e64:	1109c83a 	sub	r4,r2,r4
   42e68:	4912983a 	sll	r9,r9,r4
   42e6c:	498cb03a 	or	r6,r9,r6
   42e70:	300cc03a 	cmpne	r6,r6,zero
   42e74:	298ab03a 	or	r5,r5,r6
   42e78:	0013883a 	mov	r9,zero
   42e7c:	003f1506 	br	42ad4 <__alt_data_end+0xfffc42d4>
   42e80:	0101ffc4 	movi	r4,2047
   42e84:	113f9a1e 	bne	r2,r4,42cf0 <__alt_data_end+0xfffc44f0>
   42e88:	4811883a 	mov	r8,r9
   42e8c:	3023883a 	mov	r17,r6
   42e90:	1021883a 	mov	r16,r2
   42e94:	3825883a 	mov	r18,r7
   42e98:	003e9306 	br	428e8 <__alt_data_end+0xfffc40e8>
   42e9c:	8000161e 	bne	r16,zero,42ef8 <__adddf3+0x68c>
   42ea0:	444ab03a 	or	r5,r8,r17
   42ea4:	28005126 	beq	r5,zero,42fec <__adddf3+0x780>
   42ea8:	0108303a 	nor	r4,zero,r4
   42eac:	20004d1e 	bne	r4,zero,42fe4 <__adddf3+0x778>
   42eb0:	89a3883a 	add	r17,r17,r6
   42eb4:	4253883a 	add	r9,r8,r9
   42eb8:	898d803a 	cmpltu	r6,r17,r6
   42ebc:	3251883a 	add	r8,r6,r9
   42ec0:	1021883a 	mov	r16,r2
   42ec4:	003f0806 	br	42ae8 <__alt_data_end+0xfffc42e8>
   42ec8:	1000301e 	bne	r2,zero,42f8c <__adddf3+0x720>
   42ecc:	4984b03a 	or	r2,r9,r6
   42ed0:	10007126 	beq	r2,zero,43098 <__adddf3+0x82c>
   42ed4:	4811883a 	mov	r8,r9
   42ed8:	3023883a 	mov	r17,r6
   42edc:	3825883a 	mov	r18,r7
   42ee0:	0401ffc4 	movi	r16,2047
   42ee4:	003e8006 	br	428e8 <__alt_data_end+0xfffc40e8>
   42ee8:	4462b03a 	or	r17,r8,r17
   42eec:	8822c03a 	cmpne	r17,r17,zero
   42ef0:	0007883a 	mov	r3,zero
   42ef4:	003f8b06 	br	42d24 <__alt_data_end+0xfffc4524>
   42ef8:	0141ffc4 	movi	r5,2047
   42efc:	11403b26 	beq	r2,r5,42fec <__adddf3+0x780>
   42f00:	0109c83a 	sub	r4,zero,r4
   42f04:	42002034 	orhi	r8,r8,128
   42f08:	01400e04 	movi	r5,56
   42f0c:	29006716 	blt	r5,r4,430ac <__adddf3+0x840>
   42f10:	014007c4 	movi	r5,31
   42f14:	29007016 	blt	r5,r4,430d8 <__adddf3+0x86c>
   42f18:	01400804 	movi	r5,32
   42f1c:	290bc83a 	sub	r5,r5,r4
   42f20:	4154983a 	sll	r10,r8,r5
   42f24:	890ed83a 	srl	r7,r17,r4
   42f28:	894a983a 	sll	r5,r17,r5
   42f2c:	4108d83a 	srl	r4,r8,r4
   42f30:	51e2b03a 	or	r17,r10,r7
   42f34:	280ac03a 	cmpne	r5,r5,zero
   42f38:	8962b03a 	or	r17,r17,r5
   42f3c:	89a3883a 	add	r17,r17,r6
   42f40:	2253883a 	add	r9,r4,r9
   42f44:	898d803a 	cmpltu	r6,r17,r6
   42f48:	3251883a 	add	r8,r6,r9
   42f4c:	1021883a 	mov	r16,r2
   42f50:	003ee506 	br	42ae8 <__alt_data_end+0xfffc42e8>
   42f54:	4984b03a 	or	r2,r9,r6
   42f58:	103e6326 	beq	r2,zero,428e8 <__alt_data_end+0xfffc40e8>
   42f5c:	8987c83a 	sub	r3,r17,r6
   42f60:	88c9803a 	cmpltu	r4,r17,r3
   42f64:	4245c83a 	sub	r2,r8,r9
   42f68:	1105c83a 	sub	r2,r2,r4
   42f6c:	1100202c 	andhi	r4,r2,128
   42f70:	203ebb26 	beq	r4,zero,42a60 <__alt_data_end+0xfffc4260>
   42f74:	3463c83a 	sub	r17,r6,r17
   42f78:	4a07c83a 	sub	r3,r9,r8
   42f7c:	344d803a 	cmpltu	r6,r6,r17
   42f80:	1991c83a 	sub	r8,r3,r6
   42f84:	3825883a 	mov	r18,r7
   42f88:	003e5706 	br	428e8 <__alt_data_end+0xfffc40e8>
   42f8c:	4984b03a 	or	r2,r9,r6
   42f90:	10002e26 	beq	r2,zero,4304c <__adddf3+0x7e0>
   42f94:	4004d0fa 	srli	r2,r8,3
   42f98:	8822d0fa 	srli	r17,r17,3
   42f9c:	4010977a 	slli	r8,r8,29
   42fa0:	10c0022c 	andhi	r3,r2,8
   42fa4:	4462b03a 	or	r17,r8,r17
   42fa8:	18000826 	beq	r3,zero,42fcc <__adddf3+0x760>
   42fac:	4808d0fa 	srli	r4,r9,3
   42fb0:	20c0022c 	andhi	r3,r4,8
   42fb4:	1800051e 	bne	r3,zero,42fcc <__adddf3+0x760>
   42fb8:	300cd0fa 	srli	r6,r6,3
   42fbc:	4806977a 	slli	r3,r9,29
   42fc0:	2005883a 	mov	r2,r4
   42fc4:	3825883a 	mov	r18,r7
   42fc8:	19a2b03a 	or	r17,r3,r6
   42fcc:	8810d77a 	srli	r8,r17,29
   42fd0:	100490fa 	slli	r2,r2,3
   42fd4:	882290fa 	slli	r17,r17,3
   42fd8:	0401ffc4 	movi	r16,2047
   42fdc:	4090b03a 	or	r8,r8,r2
   42fe0:	003e4106 	br	428e8 <__alt_data_end+0xfffc40e8>
   42fe4:	0141ffc4 	movi	r5,2047
   42fe8:	117fc71e 	bne	r2,r5,42f08 <__alt_data_end+0xfffc4708>
   42fec:	4811883a 	mov	r8,r9
   42ff0:	3023883a 	mov	r17,r6
   42ff4:	1021883a 	mov	r16,r2
   42ff8:	003e3b06 	br	428e8 <__alt_data_end+0xfffc40e8>
   42ffc:	10002f26 	beq	r2,zero,430bc <__adddf3+0x850>
   43000:	4984b03a 	or	r2,r9,r6
   43004:	10001126 	beq	r2,zero,4304c <__adddf3+0x7e0>
   43008:	4004d0fa 	srli	r2,r8,3
   4300c:	8822d0fa 	srli	r17,r17,3
   43010:	4010977a 	slli	r8,r8,29
   43014:	10c0022c 	andhi	r3,r2,8
   43018:	4462b03a 	or	r17,r8,r17
   4301c:	183feb26 	beq	r3,zero,42fcc <__alt_data_end+0xfffc47cc>
   43020:	4808d0fa 	srli	r4,r9,3
   43024:	20c0022c 	andhi	r3,r4,8
   43028:	183fe81e 	bne	r3,zero,42fcc <__alt_data_end+0xfffc47cc>
   4302c:	300cd0fa 	srli	r6,r6,3
   43030:	4806977a 	slli	r3,r9,29
   43034:	2005883a 	mov	r2,r4
   43038:	19a2b03a 	or	r17,r3,r6
   4303c:	003fe306 	br	42fcc <__alt_data_end+0xfffc47cc>
   43040:	0011883a 	mov	r8,zero
   43044:	0005883a 	mov	r2,zero
   43048:	003e3f06 	br	42948 <__alt_data_end+0xfffc4148>
   4304c:	0401ffc4 	movi	r16,2047
   43050:	003e2506 	br	428e8 <__alt_data_end+0xfffc40e8>
   43054:	0013883a 	mov	r9,zero
   43058:	003f8406 	br	42e6c <__alt_data_end+0xfffc466c>
   4305c:	0005883a 	mov	r2,zero
   43060:	0007883a 	mov	r3,zero
   43064:	003e8906 	br	42a8c <__alt_data_end+0xfffc428c>
   43068:	197ff804 	addi	r5,r3,-32
   4306c:	01000804 	movi	r4,32
   43070:	414ad83a 	srl	r5,r8,r5
   43074:	19002426 	beq	r3,r4,43108 <__adddf3+0x89c>
   43078:	01001004 	movi	r4,64
   4307c:	20c7c83a 	sub	r3,r4,r3
   43080:	40c6983a 	sll	r3,r8,r3
   43084:	1c46b03a 	or	r3,r3,r17
   43088:	1806c03a 	cmpne	r3,r3,zero
   4308c:	28e2b03a 	or	r17,r5,r3
   43090:	0007883a 	mov	r3,zero
   43094:	003f2306 	br	42d24 <__alt_data_end+0xfffc4524>
   43098:	0007883a 	mov	r3,zero
   4309c:	5811883a 	mov	r8,r11
   430a0:	00bfffc4 	movi	r2,-1
   430a4:	0401ffc4 	movi	r16,2047
   430a8:	003e7806 	br	42a8c <__alt_data_end+0xfffc428c>
   430ac:	4462b03a 	or	r17,r8,r17
   430b0:	8822c03a 	cmpne	r17,r17,zero
   430b4:	0009883a 	mov	r4,zero
   430b8:	003fa006 	br	42f3c <__alt_data_end+0xfffc473c>
   430bc:	4811883a 	mov	r8,r9
   430c0:	3023883a 	mov	r17,r6
   430c4:	0401ffc4 	movi	r16,2047
   430c8:	003e0706 	br	428e8 <__alt_data_end+0xfffc40e8>
   430cc:	4811883a 	mov	r8,r9
   430d0:	3023883a 	mov	r17,r6
   430d4:	003e0406 	br	428e8 <__alt_data_end+0xfffc40e8>
   430d8:	21fff804 	addi	r7,r4,-32
   430dc:	01400804 	movi	r5,32
   430e0:	41ced83a 	srl	r7,r8,r7
   430e4:	21400a26 	beq	r4,r5,43110 <__adddf3+0x8a4>
   430e8:	01401004 	movi	r5,64
   430ec:	2909c83a 	sub	r4,r5,r4
   430f0:	4108983a 	sll	r4,r8,r4
   430f4:	2448b03a 	or	r4,r4,r17
   430f8:	2008c03a 	cmpne	r4,r4,zero
   430fc:	3922b03a 	or	r17,r7,r4
   43100:	0009883a 	mov	r4,zero
   43104:	003f8d06 	br	42f3c <__alt_data_end+0xfffc473c>
   43108:	0007883a 	mov	r3,zero
   4310c:	003fdd06 	br	43084 <__alt_data_end+0xfffc4884>
   43110:	0009883a 	mov	r4,zero
   43114:	003ff706 	br	430f4 <__alt_data_end+0xfffc48f4>

00043118 <__divdf3>:
   43118:	defff204 	addi	sp,sp,-56
   4311c:	dd400915 	stw	r21,36(sp)
   43120:	282ad53a 	srli	r21,r5,20
   43124:	dd000815 	stw	r20,32(sp)
   43128:	2828d7fa 	srli	r20,r5,31
   4312c:	dc000415 	stw	r16,16(sp)
   43130:	04000434 	movhi	r16,16
   43134:	df000c15 	stw	fp,48(sp)
   43138:	843fffc4 	addi	r16,r16,-1
   4313c:	dfc00d15 	stw	ra,52(sp)
   43140:	ddc00b15 	stw	r23,44(sp)
   43144:	dd800a15 	stw	r22,40(sp)
   43148:	dcc00715 	stw	r19,28(sp)
   4314c:	dc800615 	stw	r18,24(sp)
   43150:	dc400515 	stw	r17,20(sp)
   43154:	ad41ffcc 	andi	r21,r21,2047
   43158:	2c20703a 	and	r16,r5,r16
   4315c:	a7003fcc 	andi	fp,r20,255
   43160:	a8006126 	beq	r21,zero,432e8 <__divdf3+0x1d0>
   43164:	0081ffc4 	movi	r2,2047
   43168:	2025883a 	mov	r18,r4
   4316c:	a8803726 	beq	r21,r2,4324c <__divdf3+0x134>
   43170:	80800434 	orhi	r2,r16,16
   43174:	100490fa 	slli	r2,r2,3
   43178:	2020d77a 	srli	r16,r4,29
   4317c:	202490fa 	slli	r18,r4,3
   43180:	ad7f0044 	addi	r21,r21,-1023
   43184:	80a0b03a 	or	r16,r16,r2
   43188:	0027883a 	mov	r19,zero
   4318c:	0013883a 	mov	r9,zero
   43190:	3804d53a 	srli	r2,r7,20
   43194:	382cd7fa 	srli	r22,r7,31
   43198:	04400434 	movhi	r17,16
   4319c:	8c7fffc4 	addi	r17,r17,-1
   431a0:	1081ffcc 	andi	r2,r2,2047
   431a4:	3011883a 	mov	r8,r6
   431a8:	3c62703a 	and	r17,r7,r17
   431ac:	b5c03fcc 	andi	r23,r22,255
   431b0:	10006c26 	beq	r2,zero,43364 <__divdf3+0x24c>
   431b4:	00c1ffc4 	movi	r3,2047
   431b8:	10c06426 	beq	r2,r3,4334c <__divdf3+0x234>
   431bc:	88c00434 	orhi	r3,r17,16
   431c0:	180690fa 	slli	r3,r3,3
   431c4:	3022d77a 	srli	r17,r6,29
   431c8:	301090fa 	slli	r8,r6,3
   431cc:	10bf0044 	addi	r2,r2,-1023
   431d0:	88e2b03a 	or	r17,r17,r3
   431d4:	000f883a 	mov	r7,zero
   431d8:	a58cf03a 	xor	r6,r20,r22
   431dc:	3cc8b03a 	or	r4,r7,r19
   431e0:	a8abc83a 	sub	r21,r21,r2
   431e4:	008003c4 	movi	r2,15
   431e8:	3007883a 	mov	r3,r6
   431ec:	34c03fcc 	andi	r19,r6,255
   431f0:	11009036 	bltu	r2,r4,43434 <__divdf3+0x31c>
   431f4:	200890ba 	slli	r4,r4,2
   431f8:	00800134 	movhi	r2,4
   431fc:	108c8304 	addi	r2,r2,12812
   43200:	2089883a 	add	r4,r4,r2
   43204:	20800017 	ldw	r2,0(r4)
   43208:	1000683a 	jmp	r2
   4320c:	00043434 	movhi	zero,4304
   43210:	00043284 	movi	zero,4298
   43214:	00043424 	muli	zero,zero,4304
   43218:	00043278 	rdprs	zero,zero,4297
   4321c:	00043424 	muli	zero,zero,4304
   43220:	000433f8 	rdprs	zero,zero,4303
   43224:	00043424 	muli	zero,zero,4304
   43228:	00043278 	rdprs	zero,zero,4297
   4322c:	00043284 	movi	zero,4298
   43230:	00043284 	movi	zero,4298
   43234:	000433f8 	rdprs	zero,zero,4303
   43238:	00043278 	rdprs	zero,zero,4297
   4323c:	00043268 	cmpgeui	zero,zero,4297
   43240:	00043268 	cmpgeui	zero,zero,4297
   43244:	00043268 	cmpgeui	zero,zero,4297
   43248:	00043718 	cmpnei	zero,zero,4316
   4324c:	2404b03a 	or	r2,r4,r16
   43250:	1000661e 	bne	r2,zero,433ec <__divdf3+0x2d4>
   43254:	04c00204 	movi	r19,8
   43258:	0021883a 	mov	r16,zero
   4325c:	0025883a 	mov	r18,zero
   43260:	02400084 	movi	r9,2
   43264:	003fca06 	br	43190 <__alt_data_end+0xfffc4990>
   43268:	8023883a 	mov	r17,r16
   4326c:	9011883a 	mov	r8,r18
   43270:	e02f883a 	mov	r23,fp
   43274:	480f883a 	mov	r7,r9
   43278:	00800084 	movi	r2,2
   4327c:	3881311e 	bne	r7,r2,43744 <__divdf3+0x62c>
   43280:	b827883a 	mov	r19,r23
   43284:	98c0004c 	andi	r3,r19,1
   43288:	0081ffc4 	movi	r2,2047
   4328c:	000b883a 	mov	r5,zero
   43290:	0025883a 	mov	r18,zero
   43294:	1004953a 	slli	r2,r2,20
   43298:	18c03fcc 	andi	r3,r3,255
   4329c:	04400434 	movhi	r17,16
   432a0:	8c7fffc4 	addi	r17,r17,-1
   432a4:	180697fa 	slli	r3,r3,31
   432a8:	2c4a703a 	and	r5,r5,r17
   432ac:	288ab03a 	or	r5,r5,r2
   432b0:	28c6b03a 	or	r3,r5,r3
   432b4:	9005883a 	mov	r2,r18
   432b8:	dfc00d17 	ldw	ra,52(sp)
   432bc:	df000c17 	ldw	fp,48(sp)
   432c0:	ddc00b17 	ldw	r23,44(sp)
   432c4:	dd800a17 	ldw	r22,40(sp)
   432c8:	dd400917 	ldw	r21,36(sp)
   432cc:	dd000817 	ldw	r20,32(sp)
   432d0:	dcc00717 	ldw	r19,28(sp)
   432d4:	dc800617 	ldw	r18,24(sp)
   432d8:	dc400517 	ldw	r17,20(sp)
   432dc:	dc000417 	ldw	r16,16(sp)
   432e0:	dec00e04 	addi	sp,sp,56
   432e4:	f800283a 	ret
   432e8:	2404b03a 	or	r2,r4,r16
   432ec:	2027883a 	mov	r19,r4
   432f0:	10003926 	beq	r2,zero,433d8 <__divdf3+0x2c0>
   432f4:	80012e26 	beq	r16,zero,437b0 <__divdf3+0x698>
   432f8:	8009883a 	mov	r4,r16
   432fc:	d9800315 	stw	r6,12(sp)
   43300:	d9c00215 	stw	r7,8(sp)
   43304:	0043cb80 	call	43cb8 <__clzsi2>
   43308:	d9800317 	ldw	r6,12(sp)
   4330c:	d9c00217 	ldw	r7,8(sp)
   43310:	113ffd44 	addi	r4,r2,-11
   43314:	00c00704 	movi	r3,28
   43318:	19012116 	blt	r3,r4,437a0 <__divdf3+0x688>
   4331c:	00c00744 	movi	r3,29
   43320:	147ffe04 	addi	r17,r2,-8
   43324:	1907c83a 	sub	r3,r3,r4
   43328:	8460983a 	sll	r16,r16,r17
   4332c:	98c6d83a 	srl	r3,r19,r3
   43330:	9c64983a 	sll	r18,r19,r17
   43334:	1c20b03a 	or	r16,r3,r16
   43338:	1080fcc4 	addi	r2,r2,1011
   4333c:	00abc83a 	sub	r21,zero,r2
   43340:	0027883a 	mov	r19,zero
   43344:	0013883a 	mov	r9,zero
   43348:	003f9106 	br	43190 <__alt_data_end+0xfffc4990>
   4334c:	3446b03a 	or	r3,r6,r17
   43350:	18001f1e 	bne	r3,zero,433d0 <__divdf3+0x2b8>
   43354:	0023883a 	mov	r17,zero
   43358:	0011883a 	mov	r8,zero
   4335c:	01c00084 	movi	r7,2
   43360:	003f9d06 	br	431d8 <__alt_data_end+0xfffc49d8>
   43364:	3446b03a 	or	r3,r6,r17
   43368:	18001526 	beq	r3,zero,433c0 <__divdf3+0x2a8>
   4336c:	88011b26 	beq	r17,zero,437dc <__divdf3+0x6c4>
   43370:	8809883a 	mov	r4,r17
   43374:	d9800315 	stw	r6,12(sp)
   43378:	da400115 	stw	r9,4(sp)
   4337c:	0043cb80 	call	43cb8 <__clzsi2>
   43380:	d9800317 	ldw	r6,12(sp)
   43384:	da400117 	ldw	r9,4(sp)
   43388:	113ffd44 	addi	r4,r2,-11
   4338c:	00c00704 	movi	r3,28
   43390:	19010e16 	blt	r3,r4,437cc <__divdf3+0x6b4>
   43394:	00c00744 	movi	r3,29
   43398:	123ffe04 	addi	r8,r2,-8
   4339c:	1907c83a 	sub	r3,r3,r4
   433a0:	8a22983a 	sll	r17,r17,r8
   433a4:	30c6d83a 	srl	r3,r6,r3
   433a8:	3210983a 	sll	r8,r6,r8
   433ac:	1c62b03a 	or	r17,r3,r17
   433b0:	1080fcc4 	addi	r2,r2,1011
   433b4:	0085c83a 	sub	r2,zero,r2
   433b8:	000f883a 	mov	r7,zero
   433bc:	003f8606 	br	431d8 <__alt_data_end+0xfffc49d8>
   433c0:	0023883a 	mov	r17,zero
   433c4:	0011883a 	mov	r8,zero
   433c8:	01c00044 	movi	r7,1
   433cc:	003f8206 	br	431d8 <__alt_data_end+0xfffc49d8>
   433d0:	01c000c4 	movi	r7,3
   433d4:	003f8006 	br	431d8 <__alt_data_end+0xfffc49d8>
   433d8:	04c00104 	movi	r19,4
   433dc:	0021883a 	mov	r16,zero
   433e0:	0025883a 	mov	r18,zero
   433e4:	02400044 	movi	r9,1
   433e8:	003f6906 	br	43190 <__alt_data_end+0xfffc4990>
   433ec:	04c00304 	movi	r19,12
   433f0:	024000c4 	movi	r9,3
   433f4:	003f6606 	br	43190 <__alt_data_end+0xfffc4990>
   433f8:	01400434 	movhi	r5,16
   433fc:	0007883a 	mov	r3,zero
   43400:	297fffc4 	addi	r5,r5,-1
   43404:	04bfffc4 	movi	r18,-1
   43408:	0081ffc4 	movi	r2,2047
   4340c:	003fa106 	br	43294 <__alt_data_end+0xfffc4a94>
   43410:	00c00044 	movi	r3,1
   43414:	1887c83a 	sub	r3,r3,r2
   43418:	01000e04 	movi	r4,56
   4341c:	20c1210e 	bge	r4,r3,438a4 <__divdf3+0x78c>
   43420:	98c0004c 	andi	r3,r19,1
   43424:	0005883a 	mov	r2,zero
   43428:	000b883a 	mov	r5,zero
   4342c:	0025883a 	mov	r18,zero
   43430:	003f9806 	br	43294 <__alt_data_end+0xfffc4a94>
   43434:	8c00fd36 	bltu	r17,r16,4382c <__divdf3+0x714>
   43438:	8440fb26 	beq	r16,r17,43828 <__divdf3+0x710>
   4343c:	8007883a 	mov	r3,r16
   43440:	ad7fffc4 	addi	r21,r21,-1
   43444:	0021883a 	mov	r16,zero
   43448:	4004d63a 	srli	r2,r8,24
   4344c:	8822923a 	slli	r17,r17,8
   43450:	1809883a 	mov	r4,r3
   43454:	402c923a 	slli	r22,r8,8
   43458:	88b8b03a 	or	fp,r17,r2
   4345c:	e028d43a 	srli	r20,fp,16
   43460:	d8c00015 	stw	r3,0(sp)
   43464:	e5ffffcc 	andi	r23,fp,65535
   43468:	a00b883a 	mov	r5,r20
   4346c:	0043e140 	call	43e14 <__udivsi3>
   43470:	d8c00017 	ldw	r3,0(sp)
   43474:	a00b883a 	mov	r5,r20
   43478:	d8800315 	stw	r2,12(sp)
   4347c:	1809883a 	mov	r4,r3
   43480:	0043e780 	call	43e78 <__umodsi3>
   43484:	d9800317 	ldw	r6,12(sp)
   43488:	1006943a 	slli	r3,r2,16
   4348c:	9004d43a 	srli	r2,r18,16
   43490:	b9a3383a 	mul	r17,r23,r6
   43494:	10c4b03a 	or	r2,r2,r3
   43498:	1440062e 	bgeu	r2,r17,434b4 <__divdf3+0x39c>
   4349c:	1705883a 	add	r2,r2,fp
   434a0:	30ffffc4 	addi	r3,r6,-1
   434a4:	1700ee36 	bltu	r2,fp,43860 <__divdf3+0x748>
   434a8:	1440ed2e 	bgeu	r2,r17,43860 <__divdf3+0x748>
   434ac:	31bfff84 	addi	r6,r6,-2
   434b0:	1705883a 	add	r2,r2,fp
   434b4:	1463c83a 	sub	r17,r2,r17
   434b8:	a00b883a 	mov	r5,r20
   434bc:	8809883a 	mov	r4,r17
   434c0:	d9800315 	stw	r6,12(sp)
   434c4:	0043e140 	call	43e14 <__udivsi3>
   434c8:	a00b883a 	mov	r5,r20
   434cc:	8809883a 	mov	r4,r17
   434d0:	d8800215 	stw	r2,8(sp)
   434d4:	0043e780 	call	43e78 <__umodsi3>
   434d8:	d9c00217 	ldw	r7,8(sp)
   434dc:	1004943a 	slli	r2,r2,16
   434e0:	94bfffcc 	andi	r18,r18,65535
   434e4:	b9d1383a 	mul	r8,r23,r7
   434e8:	90a4b03a 	or	r18,r18,r2
   434ec:	d9800317 	ldw	r6,12(sp)
   434f0:	9200062e 	bgeu	r18,r8,4350c <__divdf3+0x3f4>
   434f4:	9725883a 	add	r18,r18,fp
   434f8:	38bfffc4 	addi	r2,r7,-1
   434fc:	9700d636 	bltu	r18,fp,43858 <__divdf3+0x740>
   43500:	9200d52e 	bgeu	r18,r8,43858 <__divdf3+0x740>
   43504:	39ffff84 	addi	r7,r7,-2
   43508:	9725883a 	add	r18,r18,fp
   4350c:	3004943a 	slli	r2,r6,16
   43510:	b012d43a 	srli	r9,r22,16
   43514:	b1bfffcc 	andi	r6,r22,65535
   43518:	11e2b03a 	or	r17,r2,r7
   4351c:	8806d43a 	srli	r3,r17,16
   43520:	893fffcc 	andi	r4,r17,65535
   43524:	218b383a 	mul	r5,r4,r6
   43528:	30c5383a 	mul	r2,r6,r3
   4352c:	2249383a 	mul	r4,r4,r9
   43530:	280ed43a 	srli	r7,r5,16
   43534:	9225c83a 	sub	r18,r18,r8
   43538:	2089883a 	add	r4,r4,r2
   4353c:	3909883a 	add	r4,r7,r4
   43540:	1a47383a 	mul	r3,r3,r9
   43544:	2080022e 	bgeu	r4,r2,43550 <__divdf3+0x438>
   43548:	00800074 	movhi	r2,1
   4354c:	1887883a 	add	r3,r3,r2
   43550:	2004d43a 	srli	r2,r4,16
   43554:	2008943a 	slli	r4,r4,16
   43558:	297fffcc 	andi	r5,r5,65535
   4355c:	10c7883a 	add	r3,r2,r3
   43560:	2149883a 	add	r4,r4,r5
   43564:	90c0a536 	bltu	r18,r3,437fc <__divdf3+0x6e4>
   43568:	90c0bf26 	beq	r18,r3,43868 <__divdf3+0x750>
   4356c:	90c7c83a 	sub	r3,r18,r3
   43570:	810fc83a 	sub	r7,r16,r4
   43574:	81e5803a 	cmpltu	r18,r16,r7
   43578:	1ca5c83a 	sub	r18,r3,r18
   4357c:	e480c126 	beq	fp,r18,43884 <__divdf3+0x76c>
   43580:	a00b883a 	mov	r5,r20
   43584:	9009883a 	mov	r4,r18
   43588:	d9800315 	stw	r6,12(sp)
   4358c:	d9c00215 	stw	r7,8(sp)
   43590:	da400115 	stw	r9,4(sp)
   43594:	0043e140 	call	43e14 <__udivsi3>
   43598:	a00b883a 	mov	r5,r20
   4359c:	9009883a 	mov	r4,r18
   435a0:	d8800015 	stw	r2,0(sp)
   435a4:	0043e780 	call	43e78 <__umodsi3>
   435a8:	d9c00217 	ldw	r7,8(sp)
   435ac:	da000017 	ldw	r8,0(sp)
   435b0:	1006943a 	slli	r3,r2,16
   435b4:	3804d43a 	srli	r2,r7,16
   435b8:	ba21383a 	mul	r16,r23,r8
   435bc:	d9800317 	ldw	r6,12(sp)
   435c0:	10c4b03a 	or	r2,r2,r3
   435c4:	da400117 	ldw	r9,4(sp)
   435c8:	1400062e 	bgeu	r2,r16,435e4 <__divdf3+0x4cc>
   435cc:	1705883a 	add	r2,r2,fp
   435d0:	40ffffc4 	addi	r3,r8,-1
   435d4:	1700ad36 	bltu	r2,fp,4388c <__divdf3+0x774>
   435d8:	1400ac2e 	bgeu	r2,r16,4388c <__divdf3+0x774>
   435dc:	423fff84 	addi	r8,r8,-2
   435e0:	1705883a 	add	r2,r2,fp
   435e4:	1421c83a 	sub	r16,r2,r16
   435e8:	a00b883a 	mov	r5,r20
   435ec:	8009883a 	mov	r4,r16
   435f0:	d9800315 	stw	r6,12(sp)
   435f4:	d9c00215 	stw	r7,8(sp)
   435f8:	da000015 	stw	r8,0(sp)
   435fc:	da400115 	stw	r9,4(sp)
   43600:	0043e140 	call	43e14 <__udivsi3>
   43604:	8009883a 	mov	r4,r16
   43608:	a00b883a 	mov	r5,r20
   4360c:	1025883a 	mov	r18,r2
   43610:	0043e780 	call	43e78 <__umodsi3>
   43614:	d9c00217 	ldw	r7,8(sp)
   43618:	1004943a 	slli	r2,r2,16
   4361c:	bcaf383a 	mul	r23,r23,r18
   43620:	393fffcc 	andi	r4,r7,65535
   43624:	2088b03a 	or	r4,r4,r2
   43628:	d9800317 	ldw	r6,12(sp)
   4362c:	da000017 	ldw	r8,0(sp)
   43630:	da400117 	ldw	r9,4(sp)
   43634:	25c0062e 	bgeu	r4,r23,43650 <__divdf3+0x538>
   43638:	2709883a 	add	r4,r4,fp
   4363c:	90bfffc4 	addi	r2,r18,-1
   43640:	27009436 	bltu	r4,fp,43894 <__divdf3+0x77c>
   43644:	25c0932e 	bgeu	r4,r23,43894 <__divdf3+0x77c>
   43648:	94bfff84 	addi	r18,r18,-2
   4364c:	2709883a 	add	r4,r4,fp
   43650:	4004943a 	slli	r2,r8,16
   43654:	25efc83a 	sub	r23,r4,r23
   43658:	1490b03a 	or	r8,r2,r18
   4365c:	4008d43a 	srli	r4,r8,16
   43660:	40ffffcc 	andi	r3,r8,65535
   43664:	30c5383a 	mul	r2,r6,r3
   43668:	1a47383a 	mul	r3,r3,r9
   4366c:	310d383a 	mul	r6,r6,r4
   43670:	100ad43a 	srli	r5,r2,16
   43674:	4913383a 	mul	r9,r9,r4
   43678:	1987883a 	add	r3,r3,r6
   4367c:	28c7883a 	add	r3,r5,r3
   43680:	1980022e 	bgeu	r3,r6,4368c <__divdf3+0x574>
   43684:	01000074 	movhi	r4,1
   43688:	4913883a 	add	r9,r9,r4
   4368c:	1808d43a 	srli	r4,r3,16
   43690:	1806943a 	slli	r3,r3,16
   43694:	10bfffcc 	andi	r2,r2,65535
   43698:	2253883a 	add	r9,r4,r9
   4369c:	1887883a 	add	r3,r3,r2
   436a0:	ba403836 	bltu	r23,r9,43784 <__divdf3+0x66c>
   436a4:	ba403626 	beq	r23,r9,43780 <__divdf3+0x668>
   436a8:	42000054 	ori	r8,r8,1
   436ac:	a880ffc4 	addi	r2,r21,1023
   436b0:	00bf570e 	bge	zero,r2,43410 <__alt_data_end+0xfffc4c10>
   436b4:	40c001cc 	andi	r3,r8,7
   436b8:	18000726 	beq	r3,zero,436d8 <__divdf3+0x5c0>
   436bc:	40c003cc 	andi	r3,r8,15
   436c0:	01000104 	movi	r4,4
   436c4:	19000426 	beq	r3,r4,436d8 <__divdf3+0x5c0>
   436c8:	4107883a 	add	r3,r8,r4
   436cc:	1a11803a 	cmpltu	r8,r3,r8
   436d0:	8a23883a 	add	r17,r17,r8
   436d4:	1811883a 	mov	r8,r3
   436d8:	88c0402c 	andhi	r3,r17,256
   436dc:	18000426 	beq	r3,zero,436f0 <__divdf3+0x5d8>
   436e0:	00ffc034 	movhi	r3,65280
   436e4:	18ffffc4 	addi	r3,r3,-1
   436e8:	a8810004 	addi	r2,r21,1024
   436ec:	88e2703a 	and	r17,r17,r3
   436f0:	00c1ff84 	movi	r3,2046
   436f4:	18bee316 	blt	r3,r2,43284 <__alt_data_end+0xfffc4a84>
   436f8:	8824977a 	slli	r18,r17,29
   436fc:	4010d0fa 	srli	r8,r8,3
   43700:	8822927a 	slli	r17,r17,9
   43704:	1081ffcc 	andi	r2,r2,2047
   43708:	9224b03a 	or	r18,r18,r8
   4370c:	880ad33a 	srli	r5,r17,12
   43710:	98c0004c 	andi	r3,r19,1
   43714:	003edf06 	br	43294 <__alt_data_end+0xfffc4a94>
   43718:	8080022c 	andhi	r2,r16,8
   4371c:	10001226 	beq	r2,zero,43768 <__divdf3+0x650>
   43720:	8880022c 	andhi	r2,r17,8
   43724:	1000101e 	bne	r2,zero,43768 <__divdf3+0x650>
   43728:	00800434 	movhi	r2,16
   4372c:	89400234 	orhi	r5,r17,8
   43730:	10bfffc4 	addi	r2,r2,-1
   43734:	b007883a 	mov	r3,r22
   43738:	288a703a 	and	r5,r5,r2
   4373c:	4025883a 	mov	r18,r8
   43740:	003f3106 	br	43408 <__alt_data_end+0xfffc4c08>
   43744:	008000c4 	movi	r2,3
   43748:	3880a626 	beq	r7,r2,439e4 <__divdf3+0x8cc>
   4374c:	00800044 	movi	r2,1
   43750:	3880521e 	bne	r7,r2,4389c <__divdf3+0x784>
   43754:	b807883a 	mov	r3,r23
   43758:	0005883a 	mov	r2,zero
   4375c:	000b883a 	mov	r5,zero
   43760:	0025883a 	mov	r18,zero
   43764:	003ecb06 	br	43294 <__alt_data_end+0xfffc4a94>
   43768:	00800434 	movhi	r2,16
   4376c:	81400234 	orhi	r5,r16,8
   43770:	10bfffc4 	addi	r2,r2,-1
   43774:	a007883a 	mov	r3,r20
   43778:	288a703a 	and	r5,r5,r2
   4377c:	003f2206 	br	43408 <__alt_data_end+0xfffc4c08>
   43780:	183fca26 	beq	r3,zero,436ac <__alt_data_end+0xfffc4eac>
   43784:	e5ef883a 	add	r23,fp,r23
   43788:	40bfffc4 	addi	r2,r8,-1
   4378c:	bf00392e 	bgeu	r23,fp,43874 <__divdf3+0x75c>
   43790:	1011883a 	mov	r8,r2
   43794:	ba7fc41e 	bne	r23,r9,436a8 <__alt_data_end+0xfffc4ea8>
   43798:	b0ffc31e 	bne	r22,r3,436a8 <__alt_data_end+0xfffc4ea8>
   4379c:	003fc306 	br	436ac <__alt_data_end+0xfffc4eac>
   437a0:	143ff604 	addi	r16,r2,-40
   437a4:	9c20983a 	sll	r16,r19,r16
   437a8:	0025883a 	mov	r18,zero
   437ac:	003ee206 	br	43338 <__alt_data_end+0xfffc4b38>
   437b0:	d9800315 	stw	r6,12(sp)
   437b4:	d9c00215 	stw	r7,8(sp)
   437b8:	0043cb80 	call	43cb8 <__clzsi2>
   437bc:	10800804 	addi	r2,r2,32
   437c0:	d9c00217 	ldw	r7,8(sp)
   437c4:	d9800317 	ldw	r6,12(sp)
   437c8:	003ed106 	br	43310 <__alt_data_end+0xfffc4b10>
   437cc:	147ff604 	addi	r17,r2,-40
   437d0:	3462983a 	sll	r17,r6,r17
   437d4:	0011883a 	mov	r8,zero
   437d8:	003ef506 	br	433b0 <__alt_data_end+0xfffc4bb0>
   437dc:	3009883a 	mov	r4,r6
   437e0:	d9800315 	stw	r6,12(sp)
   437e4:	da400115 	stw	r9,4(sp)
   437e8:	0043cb80 	call	43cb8 <__clzsi2>
   437ec:	10800804 	addi	r2,r2,32
   437f0:	da400117 	ldw	r9,4(sp)
   437f4:	d9800317 	ldw	r6,12(sp)
   437f8:	003ee306 	br	43388 <__alt_data_end+0xfffc4b88>
   437fc:	85a1883a 	add	r16,r16,r22
   43800:	8585803a 	cmpltu	r2,r16,r22
   43804:	1705883a 	add	r2,r2,fp
   43808:	14a5883a 	add	r18,r2,r18
   4380c:	88bfffc4 	addi	r2,r17,-1
   43810:	e4800c2e 	bgeu	fp,r18,43844 <__divdf3+0x72c>
   43814:	90c03e36 	bltu	r18,r3,43910 <__divdf3+0x7f8>
   43818:	1c806926 	beq	r3,r18,439c0 <__divdf3+0x8a8>
   4381c:	90c7c83a 	sub	r3,r18,r3
   43820:	1023883a 	mov	r17,r2
   43824:	003f5206 	br	43570 <__alt_data_end+0xfffc4d70>
   43828:	923f0436 	bltu	r18,r8,4343c <__alt_data_end+0xfffc4c3c>
   4382c:	800897fa 	slli	r4,r16,31
   43830:	9004d07a 	srli	r2,r18,1
   43834:	8006d07a 	srli	r3,r16,1
   43838:	902097fa 	slli	r16,r18,31
   4383c:	20a4b03a 	or	r18,r4,r2
   43840:	003f0106 	br	43448 <__alt_data_end+0xfffc4c48>
   43844:	e4bff51e 	bne	fp,r18,4381c <__alt_data_end+0xfffc501c>
   43848:	85bff22e 	bgeu	r16,r22,43814 <__alt_data_end+0xfffc5014>
   4384c:	e0c7c83a 	sub	r3,fp,r3
   43850:	1023883a 	mov	r17,r2
   43854:	003f4606 	br	43570 <__alt_data_end+0xfffc4d70>
   43858:	100f883a 	mov	r7,r2
   4385c:	003f2b06 	br	4350c <__alt_data_end+0xfffc4d0c>
   43860:	180d883a 	mov	r6,r3
   43864:	003f1306 	br	434b4 <__alt_data_end+0xfffc4cb4>
   43868:	813fe436 	bltu	r16,r4,437fc <__alt_data_end+0xfffc4ffc>
   4386c:	0007883a 	mov	r3,zero
   43870:	003f3f06 	br	43570 <__alt_data_end+0xfffc4d70>
   43874:	ba402c36 	bltu	r23,r9,43928 <__divdf3+0x810>
   43878:	4dc05426 	beq	r9,r23,439cc <__divdf3+0x8b4>
   4387c:	1011883a 	mov	r8,r2
   43880:	003f8906 	br	436a8 <__alt_data_end+0xfffc4ea8>
   43884:	023fffc4 	movi	r8,-1
   43888:	003f8806 	br	436ac <__alt_data_end+0xfffc4eac>
   4388c:	1811883a 	mov	r8,r3
   43890:	003f5406 	br	435e4 <__alt_data_end+0xfffc4de4>
   43894:	1025883a 	mov	r18,r2
   43898:	003f6d06 	br	43650 <__alt_data_end+0xfffc4e50>
   4389c:	b827883a 	mov	r19,r23
   438a0:	003f8206 	br	436ac <__alt_data_end+0xfffc4eac>
   438a4:	010007c4 	movi	r4,31
   438a8:	20c02616 	blt	r4,r3,43944 <__divdf3+0x82c>
   438ac:	00800804 	movi	r2,32
   438b0:	10c5c83a 	sub	r2,r2,r3
   438b4:	888a983a 	sll	r5,r17,r2
   438b8:	40c8d83a 	srl	r4,r8,r3
   438bc:	4084983a 	sll	r2,r8,r2
   438c0:	88e2d83a 	srl	r17,r17,r3
   438c4:	2906b03a 	or	r3,r5,r4
   438c8:	1004c03a 	cmpne	r2,r2,zero
   438cc:	1886b03a 	or	r3,r3,r2
   438d0:	188001cc 	andi	r2,r3,7
   438d4:	10000726 	beq	r2,zero,438f4 <__divdf3+0x7dc>
   438d8:	188003cc 	andi	r2,r3,15
   438dc:	01000104 	movi	r4,4
   438e0:	11000426 	beq	r2,r4,438f4 <__divdf3+0x7dc>
   438e4:	1805883a 	mov	r2,r3
   438e8:	10c00104 	addi	r3,r2,4
   438ec:	1885803a 	cmpltu	r2,r3,r2
   438f0:	88a3883a 	add	r17,r17,r2
   438f4:	8880202c 	andhi	r2,r17,128
   438f8:	10002726 	beq	r2,zero,43998 <__divdf3+0x880>
   438fc:	98c0004c 	andi	r3,r19,1
   43900:	00800044 	movi	r2,1
   43904:	000b883a 	mov	r5,zero
   43908:	0025883a 	mov	r18,zero
   4390c:	003e6106 	br	43294 <__alt_data_end+0xfffc4a94>
   43910:	85a1883a 	add	r16,r16,r22
   43914:	8585803a 	cmpltu	r2,r16,r22
   43918:	1705883a 	add	r2,r2,fp
   4391c:	14a5883a 	add	r18,r2,r18
   43920:	8c7fff84 	addi	r17,r17,-2
   43924:	003f1106 	br	4356c <__alt_data_end+0xfffc4d6c>
   43928:	b589883a 	add	r4,r22,r22
   4392c:	25ad803a 	cmpltu	r22,r4,r22
   43930:	b739883a 	add	fp,r22,fp
   43934:	40bfff84 	addi	r2,r8,-2
   43938:	bf2f883a 	add	r23,r23,fp
   4393c:	202d883a 	mov	r22,r4
   43940:	003f9306 	br	43790 <__alt_data_end+0xfffc4f90>
   43944:	013ff844 	movi	r4,-31
   43948:	2085c83a 	sub	r2,r4,r2
   4394c:	8888d83a 	srl	r4,r17,r2
   43950:	00800804 	movi	r2,32
   43954:	18802126 	beq	r3,r2,439dc <__divdf3+0x8c4>
   43958:	00801004 	movi	r2,64
   4395c:	10c5c83a 	sub	r2,r2,r3
   43960:	8884983a 	sll	r2,r17,r2
   43964:	1204b03a 	or	r2,r2,r8
   43968:	1004c03a 	cmpne	r2,r2,zero
   4396c:	2084b03a 	or	r2,r4,r2
   43970:	144001cc 	andi	r17,r2,7
   43974:	88000d1e 	bne	r17,zero,439ac <__divdf3+0x894>
   43978:	000b883a 	mov	r5,zero
   4397c:	1024d0fa 	srli	r18,r2,3
   43980:	98c0004c 	andi	r3,r19,1
   43984:	0005883a 	mov	r2,zero
   43988:	9464b03a 	or	r18,r18,r17
   4398c:	003e4106 	br	43294 <__alt_data_end+0xfffc4a94>
   43990:	1007883a 	mov	r3,r2
   43994:	0023883a 	mov	r17,zero
   43998:	880a927a 	slli	r5,r17,9
   4399c:	1805883a 	mov	r2,r3
   439a0:	8822977a 	slli	r17,r17,29
   439a4:	280ad33a 	srli	r5,r5,12
   439a8:	003ff406 	br	4397c <__alt_data_end+0xfffc517c>
   439ac:	10c003cc 	andi	r3,r2,15
   439b0:	01000104 	movi	r4,4
   439b4:	193ff626 	beq	r3,r4,43990 <__alt_data_end+0xfffc5190>
   439b8:	0023883a 	mov	r17,zero
   439bc:	003fca06 	br	438e8 <__alt_data_end+0xfffc50e8>
   439c0:	813fd336 	bltu	r16,r4,43910 <__alt_data_end+0xfffc5110>
   439c4:	1023883a 	mov	r17,r2
   439c8:	003fa806 	br	4386c <__alt_data_end+0xfffc506c>
   439cc:	b0ffd636 	bltu	r22,r3,43928 <__alt_data_end+0xfffc5128>
   439d0:	1011883a 	mov	r8,r2
   439d4:	b0ff341e 	bne	r22,r3,436a8 <__alt_data_end+0xfffc4ea8>
   439d8:	003f3406 	br	436ac <__alt_data_end+0xfffc4eac>
   439dc:	0005883a 	mov	r2,zero
   439e0:	003fe006 	br	43964 <__alt_data_end+0xfffc5164>
   439e4:	00800434 	movhi	r2,16
   439e8:	89400234 	orhi	r5,r17,8
   439ec:	10bfffc4 	addi	r2,r2,-1
   439f0:	b807883a 	mov	r3,r23
   439f4:	288a703a 	and	r5,r5,r2
   439f8:	4025883a 	mov	r18,r8
   439fc:	003e8206 	br	43408 <__alt_data_end+0xfffc4c08>

00043a00 <__extendsfdf2>:
   43a00:	200ad5fa 	srli	r5,r4,23
   43a04:	defffd04 	addi	sp,sp,-12
   43a08:	dc400115 	stw	r17,4(sp)
   43a0c:	29403fcc 	andi	r5,r5,255
   43a10:	29800044 	addi	r6,r5,1
   43a14:	04402034 	movhi	r17,128
   43a18:	dc000015 	stw	r16,0(sp)
   43a1c:	8c7fffc4 	addi	r17,r17,-1
   43a20:	dfc00215 	stw	ra,8(sp)
   43a24:	31803fcc 	andi	r6,r6,255
   43a28:	00800044 	movi	r2,1
   43a2c:	8922703a 	and	r17,r17,r4
   43a30:	2020d7fa 	srli	r16,r4,31
   43a34:	1180110e 	bge	r2,r6,43a7c <__extendsfdf2+0x7c>
   43a38:	880cd0fa 	srli	r6,r17,3
   43a3c:	8822977a 	slli	r17,r17,29
   43a40:	2940e004 	addi	r5,r5,896
   43a44:	2941ffcc 	andi	r5,r5,2047
   43a48:	2804953a 	slli	r2,r5,20
   43a4c:	01400434 	movhi	r5,16
   43a50:	800697fa 	slli	r3,r16,31
   43a54:	297fffc4 	addi	r5,r5,-1
   43a58:	314a703a 	and	r5,r6,r5
   43a5c:	288ab03a 	or	r5,r5,r2
   43a60:	28c6b03a 	or	r3,r5,r3
   43a64:	8805883a 	mov	r2,r17
   43a68:	dfc00217 	ldw	ra,8(sp)
   43a6c:	dc400117 	ldw	r17,4(sp)
   43a70:	dc000017 	ldw	r16,0(sp)
   43a74:	dec00304 	addi	sp,sp,12
   43a78:	f800283a 	ret
   43a7c:	2800111e 	bne	r5,zero,43ac4 <__extendsfdf2+0xc4>
   43a80:	88001c26 	beq	r17,zero,43af4 <__extendsfdf2+0xf4>
   43a84:	8809883a 	mov	r4,r17
   43a88:	0043cb80 	call	43cb8 <__clzsi2>
   43a8c:	00c00284 	movi	r3,10
   43a90:	18801b16 	blt	r3,r2,43b00 <__extendsfdf2+0x100>
   43a94:	018002c4 	movi	r6,11
   43a98:	308dc83a 	sub	r6,r6,r2
   43a9c:	11000544 	addi	r4,r2,21
   43aa0:	8986d83a 	srl	r3,r17,r6
   43aa4:	8922983a 	sll	r17,r17,r4
   43aa8:	0180e244 	movi	r6,905
   43aac:	01400434 	movhi	r5,16
   43ab0:	3085c83a 	sub	r2,r6,r2
   43ab4:	297fffc4 	addi	r5,r5,-1
   43ab8:	194c703a 	and	r6,r3,r5
   43abc:	1141ffcc 	andi	r5,r2,2047
   43ac0:	003fe006 	br	43a44 <__alt_data_end+0xfffc5244>
   43ac4:	88000826 	beq	r17,zero,43ae8 <__extendsfdf2+0xe8>
   43ac8:	880cd0fa 	srli	r6,r17,3
   43acc:	00800434 	movhi	r2,16
   43ad0:	10bfffc4 	addi	r2,r2,-1
   43ad4:	31800234 	orhi	r6,r6,8
   43ad8:	8822977a 	slli	r17,r17,29
   43adc:	308c703a 	and	r6,r6,r2
   43ae0:	0141ffc4 	movi	r5,2047
   43ae4:	003fd706 	br	43a44 <__alt_data_end+0xfffc5244>
   43ae8:	0141ffc4 	movi	r5,2047
   43aec:	000d883a 	mov	r6,zero
   43af0:	003fd406 	br	43a44 <__alt_data_end+0xfffc5244>
   43af4:	000b883a 	mov	r5,zero
   43af8:	000d883a 	mov	r6,zero
   43afc:	003fd106 	br	43a44 <__alt_data_end+0xfffc5244>
   43b00:	11bffd44 	addi	r6,r2,-11
   43b04:	8986983a 	sll	r3,r17,r6
   43b08:	0023883a 	mov	r17,zero
   43b0c:	003fe606 	br	43aa8 <__alt_data_end+0xfffc52a8>

00043b10 <__truncdfsf2>:
   43b10:	2810d53a 	srli	r8,r5,20
   43b14:	01c00434 	movhi	r7,16
   43b18:	39ffffc4 	addi	r7,r7,-1
   43b1c:	29ce703a 	and	r7,r5,r7
   43b20:	4201ffcc 	andi	r8,r8,2047
   43b24:	380e90fa 	slli	r7,r7,3
   43b28:	200cd77a 	srli	r6,r4,29
   43b2c:	42400044 	addi	r9,r8,1
   43b30:	4a41ffcc 	andi	r9,r9,2047
   43b34:	00c00044 	movi	r3,1
   43b38:	280ad7fa 	srli	r5,r5,31
   43b3c:	31ceb03a 	or	r7,r6,r7
   43b40:	200490fa 	slli	r2,r4,3
   43b44:	1a40230e 	bge	r3,r9,43bd4 <__truncdfsf2+0xc4>
   43b48:	40ff2004 	addi	r3,r8,-896
   43b4c:	01803f84 	movi	r6,254
   43b50:	30c01516 	blt	r6,r3,43ba8 <__truncdfsf2+0x98>
   43b54:	00c0380e 	bge	zero,r3,43c38 <__truncdfsf2+0x128>
   43b58:	200c91ba 	slli	r6,r4,6
   43b5c:	380e90fa 	slli	r7,r7,3
   43b60:	1004d77a 	srli	r2,r2,29
   43b64:	300cc03a 	cmpne	r6,r6,zero
   43b68:	31ccb03a 	or	r6,r6,r7
   43b6c:	308cb03a 	or	r6,r6,r2
   43b70:	308001cc 	andi	r2,r6,7
   43b74:	10000426 	beq	r2,zero,43b88 <__truncdfsf2+0x78>
   43b78:	308003cc 	andi	r2,r6,15
   43b7c:	01000104 	movi	r4,4
   43b80:	11000126 	beq	r2,r4,43b88 <__truncdfsf2+0x78>
   43b84:	31800104 	addi	r6,r6,4
   43b88:	3081002c 	andhi	r2,r6,1024
   43b8c:	10001626 	beq	r2,zero,43be8 <__truncdfsf2+0xd8>
   43b90:	18c00044 	addi	r3,r3,1
   43b94:	00803fc4 	movi	r2,255
   43b98:	18800326 	beq	r3,r2,43ba8 <__truncdfsf2+0x98>
   43b9c:	300c91ba 	slli	r6,r6,6
   43ba0:	300cd27a 	srli	r6,r6,9
   43ba4:	00000206 	br	43bb0 <__truncdfsf2+0xa0>
   43ba8:	00ffffc4 	movi	r3,-1
   43bac:	000d883a 	mov	r6,zero
   43bb0:	18c03fcc 	andi	r3,r3,255
   43bb4:	180895fa 	slli	r4,r3,23
   43bb8:	00c02034 	movhi	r3,128
   43bbc:	280a97fa 	slli	r5,r5,31
   43bc0:	18ffffc4 	addi	r3,r3,-1
   43bc4:	30c6703a 	and	r3,r6,r3
   43bc8:	1906b03a 	or	r3,r3,r4
   43bcc:	1944b03a 	or	r2,r3,r5
   43bd0:	f800283a 	ret
   43bd4:	40000b1e 	bne	r8,zero,43c04 <__truncdfsf2+0xf4>
   43bd8:	388cb03a 	or	r6,r7,r2
   43bdc:	0007883a 	mov	r3,zero
   43be0:	30000426 	beq	r6,zero,43bf4 <__truncdfsf2+0xe4>
   43be4:	01800144 	movi	r6,5
   43be8:	00803fc4 	movi	r2,255
   43bec:	300cd0fa 	srli	r6,r6,3
   43bf0:	18800a26 	beq	r3,r2,43c1c <__truncdfsf2+0x10c>
   43bf4:	00802034 	movhi	r2,128
   43bf8:	10bfffc4 	addi	r2,r2,-1
   43bfc:	308c703a 	and	r6,r6,r2
   43c00:	003feb06 	br	43bb0 <__alt_data_end+0xfffc53b0>
   43c04:	3888b03a 	or	r4,r7,r2
   43c08:	203fe726 	beq	r4,zero,43ba8 <__alt_data_end+0xfffc53a8>
   43c0c:	380c90fa 	slli	r6,r7,3
   43c10:	00c03fc4 	movi	r3,255
   43c14:	31808034 	orhi	r6,r6,512
   43c18:	003fd506 	br	43b70 <__alt_data_end+0xfffc5370>
   43c1c:	303fe226 	beq	r6,zero,43ba8 <__alt_data_end+0xfffc53a8>
   43c20:	00802034 	movhi	r2,128
   43c24:	31801034 	orhi	r6,r6,64
   43c28:	10bfffc4 	addi	r2,r2,-1
   43c2c:	00ffffc4 	movi	r3,-1
   43c30:	308c703a 	and	r6,r6,r2
   43c34:	003fde06 	br	43bb0 <__alt_data_end+0xfffc53b0>
   43c38:	013ffa44 	movi	r4,-23
   43c3c:	19000e16 	blt	r3,r4,43c78 <__truncdfsf2+0x168>
   43c40:	01000784 	movi	r4,30
   43c44:	20c9c83a 	sub	r4,r4,r3
   43c48:	018007c4 	movi	r6,31
   43c4c:	39c02034 	orhi	r7,r7,128
   43c50:	31000b16 	blt	r6,r4,43c80 <__truncdfsf2+0x170>
   43c54:	423f2084 	addi	r8,r8,-894
   43c58:	120c983a 	sll	r6,r2,r8
   43c5c:	3a0e983a 	sll	r7,r7,r8
   43c60:	1104d83a 	srl	r2,r2,r4
   43c64:	300cc03a 	cmpne	r6,r6,zero
   43c68:	31ceb03a 	or	r7,r6,r7
   43c6c:	388cb03a 	or	r6,r7,r2
   43c70:	0007883a 	mov	r3,zero
   43c74:	003fbe06 	br	43b70 <__alt_data_end+0xfffc5370>
   43c78:	0007883a 	mov	r3,zero
   43c7c:	003fd906 	br	43be4 <__alt_data_end+0xfffc53e4>
   43c80:	01bfff84 	movi	r6,-2
   43c84:	30cdc83a 	sub	r6,r6,r3
   43c88:	00c00804 	movi	r3,32
   43c8c:	398cd83a 	srl	r6,r7,r6
   43c90:	20c00726 	beq	r4,r3,43cb0 <__truncdfsf2+0x1a0>
   43c94:	423f2884 	addi	r8,r8,-862
   43c98:	3a0e983a 	sll	r7,r7,r8
   43c9c:	3884b03a 	or	r2,r7,r2
   43ca0:	1004c03a 	cmpne	r2,r2,zero
   43ca4:	118cb03a 	or	r6,r2,r6
   43ca8:	0007883a 	mov	r3,zero
   43cac:	003fb006 	br	43b70 <__alt_data_end+0xfffc5370>
   43cb0:	000f883a 	mov	r7,zero
   43cb4:	003ff906 	br	43c9c <__alt_data_end+0xfffc549c>

00043cb8 <__clzsi2>:
   43cb8:	00bfffd4 	movui	r2,65535
   43cbc:	11000536 	bltu	r2,r4,43cd4 <__clzsi2+0x1c>
   43cc0:	00803fc4 	movi	r2,255
   43cc4:	11000f36 	bltu	r2,r4,43d04 <__clzsi2+0x4c>
   43cc8:	00800804 	movi	r2,32
   43ccc:	0007883a 	mov	r3,zero
   43cd0:	00000506 	br	43ce8 <__clzsi2+0x30>
   43cd4:	00804034 	movhi	r2,256
   43cd8:	10bfffc4 	addi	r2,r2,-1
   43cdc:	11000c2e 	bgeu	r2,r4,43d10 <__clzsi2+0x58>
   43ce0:	00800204 	movi	r2,8
   43ce4:	00c00604 	movi	r3,24
   43ce8:	20c8d83a 	srl	r4,r4,r3
   43cec:	00c00174 	movhi	r3,5
   43cf0:	18d6f9c4 	addi	r3,r3,23527
   43cf4:	1909883a 	add	r4,r3,r4
   43cf8:	20c00003 	ldbu	r3,0(r4)
   43cfc:	10c5c83a 	sub	r2,r2,r3
   43d00:	f800283a 	ret
   43d04:	00800604 	movi	r2,24
   43d08:	00c00204 	movi	r3,8
   43d0c:	003ff606 	br	43ce8 <__alt_data_end+0xfffc54e8>
   43d10:	00800404 	movi	r2,16
   43d14:	1007883a 	mov	r3,r2
   43d18:	003ff306 	br	43ce8 <__alt_data_end+0xfffc54e8>

00043d1c <__divsi3>:
   43d1c:	20001b16 	blt	r4,zero,43d8c <__divsi3+0x70>
   43d20:	000f883a 	mov	r7,zero
   43d24:	28001616 	blt	r5,zero,43d80 <__divsi3+0x64>
   43d28:	200d883a 	mov	r6,r4
   43d2c:	29001a2e 	bgeu	r5,r4,43d98 <__divsi3+0x7c>
   43d30:	00800804 	movi	r2,32
   43d34:	00c00044 	movi	r3,1
   43d38:	00000106 	br	43d40 <__divsi3+0x24>
   43d3c:	10000d26 	beq	r2,zero,43d74 <__divsi3+0x58>
   43d40:	294b883a 	add	r5,r5,r5
   43d44:	10bfffc4 	addi	r2,r2,-1
   43d48:	18c7883a 	add	r3,r3,r3
   43d4c:	293ffb36 	bltu	r5,r4,43d3c <__alt_data_end+0xfffc553c>
   43d50:	0005883a 	mov	r2,zero
   43d54:	18000726 	beq	r3,zero,43d74 <__divsi3+0x58>
   43d58:	0005883a 	mov	r2,zero
   43d5c:	31400236 	bltu	r6,r5,43d68 <__divsi3+0x4c>
   43d60:	314dc83a 	sub	r6,r6,r5
   43d64:	10c4b03a 	or	r2,r2,r3
   43d68:	1806d07a 	srli	r3,r3,1
   43d6c:	280ad07a 	srli	r5,r5,1
   43d70:	183ffa1e 	bne	r3,zero,43d5c <__alt_data_end+0xfffc555c>
   43d74:	38000126 	beq	r7,zero,43d7c <__divsi3+0x60>
   43d78:	0085c83a 	sub	r2,zero,r2
   43d7c:	f800283a 	ret
   43d80:	014bc83a 	sub	r5,zero,r5
   43d84:	39c0005c 	xori	r7,r7,1
   43d88:	003fe706 	br	43d28 <__alt_data_end+0xfffc5528>
   43d8c:	0109c83a 	sub	r4,zero,r4
   43d90:	01c00044 	movi	r7,1
   43d94:	003fe306 	br	43d24 <__alt_data_end+0xfffc5524>
   43d98:	00c00044 	movi	r3,1
   43d9c:	003fee06 	br	43d58 <__alt_data_end+0xfffc5558>

00043da0 <__modsi3>:
   43da0:	20001716 	blt	r4,zero,43e00 <__modsi3+0x60>
   43da4:	000f883a 	mov	r7,zero
   43da8:	2005883a 	mov	r2,r4
   43dac:	28001216 	blt	r5,zero,43df8 <__modsi3+0x58>
   43db0:	2900162e 	bgeu	r5,r4,43e0c <__modsi3+0x6c>
   43db4:	01800804 	movi	r6,32
   43db8:	00c00044 	movi	r3,1
   43dbc:	00000106 	br	43dc4 <__modsi3+0x24>
   43dc0:	30000a26 	beq	r6,zero,43dec <__modsi3+0x4c>
   43dc4:	294b883a 	add	r5,r5,r5
   43dc8:	31bfffc4 	addi	r6,r6,-1
   43dcc:	18c7883a 	add	r3,r3,r3
   43dd0:	293ffb36 	bltu	r5,r4,43dc0 <__alt_data_end+0xfffc55c0>
   43dd4:	18000526 	beq	r3,zero,43dec <__modsi3+0x4c>
   43dd8:	1806d07a 	srli	r3,r3,1
   43ddc:	11400136 	bltu	r2,r5,43de4 <__modsi3+0x44>
   43de0:	1145c83a 	sub	r2,r2,r5
   43de4:	280ad07a 	srli	r5,r5,1
   43de8:	183ffb1e 	bne	r3,zero,43dd8 <__alt_data_end+0xfffc55d8>
   43dec:	38000126 	beq	r7,zero,43df4 <__modsi3+0x54>
   43df0:	0085c83a 	sub	r2,zero,r2
   43df4:	f800283a 	ret
   43df8:	014bc83a 	sub	r5,zero,r5
   43dfc:	003fec06 	br	43db0 <__alt_data_end+0xfffc55b0>
   43e00:	0109c83a 	sub	r4,zero,r4
   43e04:	01c00044 	movi	r7,1
   43e08:	003fe706 	br	43da8 <__alt_data_end+0xfffc55a8>
   43e0c:	00c00044 	movi	r3,1
   43e10:	003ff106 	br	43dd8 <__alt_data_end+0xfffc55d8>

00043e14 <__udivsi3>:
   43e14:	200d883a 	mov	r6,r4
   43e18:	2900152e 	bgeu	r5,r4,43e70 <__udivsi3+0x5c>
   43e1c:	28001416 	blt	r5,zero,43e70 <__udivsi3+0x5c>
   43e20:	00800804 	movi	r2,32
   43e24:	00c00044 	movi	r3,1
   43e28:	00000206 	br	43e34 <__udivsi3+0x20>
   43e2c:	10000e26 	beq	r2,zero,43e68 <__udivsi3+0x54>
   43e30:	28000516 	blt	r5,zero,43e48 <__udivsi3+0x34>
   43e34:	294b883a 	add	r5,r5,r5
   43e38:	10bfffc4 	addi	r2,r2,-1
   43e3c:	18c7883a 	add	r3,r3,r3
   43e40:	293ffa36 	bltu	r5,r4,43e2c <__alt_data_end+0xfffc562c>
   43e44:	18000826 	beq	r3,zero,43e68 <__udivsi3+0x54>
   43e48:	0005883a 	mov	r2,zero
   43e4c:	31400236 	bltu	r6,r5,43e58 <__udivsi3+0x44>
   43e50:	314dc83a 	sub	r6,r6,r5
   43e54:	10c4b03a 	or	r2,r2,r3
   43e58:	1806d07a 	srli	r3,r3,1
   43e5c:	280ad07a 	srli	r5,r5,1
   43e60:	183ffa1e 	bne	r3,zero,43e4c <__alt_data_end+0xfffc564c>
   43e64:	f800283a 	ret
   43e68:	0005883a 	mov	r2,zero
   43e6c:	f800283a 	ret
   43e70:	00c00044 	movi	r3,1
   43e74:	003ff406 	br	43e48 <__alt_data_end+0xfffc5648>

00043e78 <__umodsi3>:
   43e78:	2005883a 	mov	r2,r4
   43e7c:	2900122e 	bgeu	r5,r4,43ec8 <__umodsi3+0x50>
   43e80:	28001116 	blt	r5,zero,43ec8 <__umodsi3+0x50>
   43e84:	01800804 	movi	r6,32
   43e88:	00c00044 	movi	r3,1
   43e8c:	00000206 	br	43e98 <__umodsi3+0x20>
   43e90:	30000c26 	beq	r6,zero,43ec4 <__umodsi3+0x4c>
   43e94:	28000516 	blt	r5,zero,43eac <__umodsi3+0x34>
   43e98:	294b883a 	add	r5,r5,r5
   43e9c:	31bfffc4 	addi	r6,r6,-1
   43ea0:	18c7883a 	add	r3,r3,r3
   43ea4:	293ffa36 	bltu	r5,r4,43e90 <__alt_data_end+0xfffc5690>
   43ea8:	18000626 	beq	r3,zero,43ec4 <__umodsi3+0x4c>
   43eac:	1806d07a 	srli	r3,r3,1
   43eb0:	11400136 	bltu	r2,r5,43eb8 <__umodsi3+0x40>
   43eb4:	1145c83a 	sub	r2,r2,r5
   43eb8:	280ad07a 	srli	r5,r5,1
   43ebc:	183ffb1e 	bne	r3,zero,43eac <__alt_data_end+0xfffc56ac>
   43ec0:	f800283a 	ret
   43ec4:	f800283a 	ret
   43ec8:	00c00044 	movi	r3,1
   43ecc:	003ff706 	br	43eac <__alt_data_end+0xfffc56ac>

00043ed0 <_printf_r>:
   43ed0:	defffd04 	addi	sp,sp,-12
   43ed4:	2805883a 	mov	r2,r5
   43ed8:	dfc00015 	stw	ra,0(sp)
   43edc:	d9800115 	stw	r6,4(sp)
   43ee0:	d9c00215 	stw	r7,8(sp)
   43ee4:	21400217 	ldw	r5,8(r4)
   43ee8:	d9c00104 	addi	r7,sp,4
   43eec:	100d883a 	mov	r6,r2
   43ef0:	00463440 	call	46344 <___vfprintf_internal_r>
   43ef4:	dfc00017 	ldw	ra,0(sp)
   43ef8:	dec00304 	addi	sp,sp,12
   43efc:	f800283a 	ret

00043f00 <printf>:
   43f00:	defffc04 	addi	sp,sp,-16
   43f04:	dfc00015 	stw	ra,0(sp)
   43f08:	d9400115 	stw	r5,4(sp)
   43f0c:	d9800215 	stw	r6,8(sp)
   43f10:	d9c00315 	stw	r7,12(sp)
   43f14:	00800174 	movhi	r2,5
   43f18:	109ea804 	addi	r2,r2,31392
   43f1c:	10800017 	ldw	r2,0(r2)
   43f20:	200b883a 	mov	r5,r4
   43f24:	d9800104 	addi	r6,sp,4
   43f28:	11000217 	ldw	r4,8(r2)
   43f2c:	004853c0 	call	4853c <__vfprintf_internal>
   43f30:	dfc00017 	ldw	ra,0(sp)
   43f34:	dec00404 	addi	sp,sp,16
   43f38:	f800283a 	ret

00043f3c <_puts_r>:
   43f3c:	defff604 	addi	sp,sp,-40
   43f40:	dc000715 	stw	r16,28(sp)
   43f44:	2021883a 	mov	r16,r4
   43f48:	2809883a 	mov	r4,r5
   43f4c:	dc400815 	stw	r17,32(sp)
   43f50:	dfc00915 	stw	ra,36(sp)
   43f54:	2823883a 	mov	r17,r5
   43f58:	00440d40 	call	440d4 <strlen>
   43f5c:	10c00044 	addi	r3,r2,1
   43f60:	d8800115 	stw	r2,4(sp)
   43f64:	00800174 	movhi	r2,5
   43f68:	10973a04 	addi	r2,r2,23784
   43f6c:	d8800215 	stw	r2,8(sp)
   43f70:	00800044 	movi	r2,1
   43f74:	d8800315 	stw	r2,12(sp)
   43f78:	00800084 	movi	r2,2
   43f7c:	dc400015 	stw	r17,0(sp)
   43f80:	d8c00615 	stw	r3,24(sp)
   43f84:	dec00415 	stw	sp,16(sp)
   43f88:	d8800515 	stw	r2,20(sp)
   43f8c:	80000226 	beq	r16,zero,43f98 <_puts_r+0x5c>
   43f90:	80800e17 	ldw	r2,56(r16)
   43f94:	10001426 	beq	r2,zero,43fe8 <_puts_r+0xac>
   43f98:	81400217 	ldw	r5,8(r16)
   43f9c:	2880030b 	ldhu	r2,12(r5)
   43fa0:	10c8000c 	andi	r3,r2,8192
   43fa4:	1800061e 	bne	r3,zero,43fc0 <_puts_r+0x84>
   43fa8:	29001917 	ldw	r4,100(r5)
   43fac:	00f7ffc4 	movi	r3,-8193
   43fb0:	10880014 	ori	r2,r2,8192
   43fb4:	20c6703a 	and	r3,r4,r3
   43fb8:	2880030d 	sth	r2,12(r5)
   43fbc:	28c01915 	stw	r3,100(r5)
   43fc0:	d9800404 	addi	r6,sp,16
   43fc4:	8009883a 	mov	r4,r16
   43fc8:	004ab900 	call	4ab90 <__sfvwrite_r>
   43fcc:	1000091e 	bne	r2,zero,43ff4 <_puts_r+0xb8>
   43fd0:	00800284 	movi	r2,10
   43fd4:	dfc00917 	ldw	ra,36(sp)
   43fd8:	dc400817 	ldw	r17,32(sp)
   43fdc:	dc000717 	ldw	r16,28(sp)
   43fe0:	dec00a04 	addi	sp,sp,40
   43fe4:	f800283a 	ret
   43fe8:	8009883a 	mov	r4,r16
   43fec:	004a70c0 	call	4a70c <__sinit>
   43ff0:	003fe906 	br	43f98 <__alt_data_end+0xfffc5798>
   43ff4:	00bfffc4 	movi	r2,-1
   43ff8:	003ff606 	br	43fd4 <__alt_data_end+0xfffc57d4>

00043ffc <puts>:
   43ffc:	00800174 	movhi	r2,5
   44000:	109ea804 	addi	r2,r2,31392
   44004:	200b883a 	mov	r5,r4
   44008:	11000017 	ldw	r4,0(r2)
   4400c:	0043f3c1 	jmpi	43f3c <_puts_r>

00044010 <_sprintf_r>:
   44010:	deffe404 	addi	sp,sp,-112
   44014:	2807883a 	mov	r3,r5
   44018:	dfc01a15 	stw	ra,104(sp)
   4401c:	d9c01b15 	stw	r7,108(sp)
   44020:	00a00034 	movhi	r2,32768
   44024:	10bfffc4 	addi	r2,r2,-1
   44028:	02008204 	movi	r8,520
   4402c:	d8800215 	stw	r2,8(sp)
   44030:	d8800515 	stw	r2,20(sp)
   44034:	d9c01b04 	addi	r7,sp,108
   44038:	d80b883a 	mov	r5,sp
   4403c:	00bfffc4 	movi	r2,-1
   44040:	d8c00015 	stw	r3,0(sp)
   44044:	d8c00415 	stw	r3,16(sp)
   44048:	da00030d 	sth	r8,12(sp)
   4404c:	d880038d 	sth	r2,14(sp)
   44050:	004416c0 	call	4416c <___svfprintf_internal_r>
   44054:	d8c00017 	ldw	r3,0(sp)
   44058:	18000005 	stb	zero,0(r3)
   4405c:	dfc01a17 	ldw	ra,104(sp)
   44060:	dec01c04 	addi	sp,sp,112
   44064:	f800283a 	ret

00044068 <sprintf>:
   44068:	deffe304 	addi	sp,sp,-116
   4406c:	2007883a 	mov	r3,r4
   44070:	dfc01a15 	stw	ra,104(sp)
   44074:	d9801b15 	stw	r6,108(sp)
   44078:	d9c01c15 	stw	r7,112(sp)
   4407c:	01000174 	movhi	r4,5
   44080:	211ea804 	addi	r4,r4,31392
   44084:	21000017 	ldw	r4,0(r4)
   44088:	00a00034 	movhi	r2,32768
   4408c:	10bfffc4 	addi	r2,r2,-1
   44090:	280d883a 	mov	r6,r5
   44094:	02008204 	movi	r8,520
   44098:	d8800215 	stw	r2,8(sp)
   4409c:	d8800515 	stw	r2,20(sp)
   440a0:	d9c01b04 	addi	r7,sp,108
   440a4:	d80b883a 	mov	r5,sp
   440a8:	00bfffc4 	movi	r2,-1
   440ac:	d8c00015 	stw	r3,0(sp)
   440b0:	d8c00415 	stw	r3,16(sp)
   440b4:	da00030d 	sth	r8,12(sp)
   440b8:	d880038d 	sth	r2,14(sp)
   440bc:	004416c0 	call	4416c <___svfprintf_internal_r>
   440c0:	d8c00017 	ldw	r3,0(sp)
   440c4:	18000005 	stb	zero,0(r3)
   440c8:	dfc01a17 	ldw	ra,104(sp)
   440cc:	dec01d04 	addi	sp,sp,116
   440d0:	f800283a 	ret

000440d4 <strlen>:
   440d4:	208000cc 	andi	r2,r4,3
   440d8:	10002026 	beq	r2,zero,4415c <strlen+0x88>
   440dc:	20800007 	ldb	r2,0(r4)
   440e0:	10002026 	beq	r2,zero,44164 <strlen+0x90>
   440e4:	2005883a 	mov	r2,r4
   440e8:	00000206 	br	440f4 <strlen+0x20>
   440ec:	10c00007 	ldb	r3,0(r2)
   440f0:	18001826 	beq	r3,zero,44154 <strlen+0x80>
   440f4:	10800044 	addi	r2,r2,1
   440f8:	10c000cc 	andi	r3,r2,3
   440fc:	183ffb1e 	bne	r3,zero,440ec <__alt_data_end+0xfffc58ec>
   44100:	10c00017 	ldw	r3,0(r2)
   44104:	01ffbff4 	movhi	r7,65279
   44108:	39ffbfc4 	addi	r7,r7,-257
   4410c:	00ca303a 	nor	r5,zero,r3
   44110:	01a02074 	movhi	r6,32897
   44114:	19c7883a 	add	r3,r3,r7
   44118:	31a02004 	addi	r6,r6,-32640
   4411c:	1946703a 	and	r3,r3,r5
   44120:	1986703a 	and	r3,r3,r6
   44124:	1800091e 	bne	r3,zero,4414c <strlen+0x78>
   44128:	10800104 	addi	r2,r2,4
   4412c:	10c00017 	ldw	r3,0(r2)
   44130:	19cb883a 	add	r5,r3,r7
   44134:	00c6303a 	nor	r3,zero,r3
   44138:	28c6703a 	and	r3,r5,r3
   4413c:	1986703a 	and	r3,r3,r6
   44140:	183ff926 	beq	r3,zero,44128 <__alt_data_end+0xfffc5928>
   44144:	00000106 	br	4414c <strlen+0x78>
   44148:	10800044 	addi	r2,r2,1
   4414c:	10c00007 	ldb	r3,0(r2)
   44150:	183ffd1e 	bne	r3,zero,44148 <__alt_data_end+0xfffc5948>
   44154:	1105c83a 	sub	r2,r2,r4
   44158:	f800283a 	ret
   4415c:	2005883a 	mov	r2,r4
   44160:	003fe706 	br	44100 <__alt_data_end+0xfffc5900>
   44164:	0005883a 	mov	r2,zero
   44168:	f800283a 	ret

0004416c <___svfprintf_internal_r>:
   4416c:	deffb704 	addi	sp,sp,-292
   44170:	dfc04815 	stw	ra,288(sp)
   44174:	ddc04615 	stw	r23,280(sp)
   44178:	d9402c15 	stw	r5,176(sp)
   4417c:	d9003915 	stw	r4,228(sp)
   44180:	302f883a 	mov	r23,r6
   44184:	d9c02d15 	stw	r7,180(sp)
   44188:	df004715 	stw	fp,284(sp)
   4418c:	dd804515 	stw	r22,276(sp)
   44190:	dd404415 	stw	r21,272(sp)
   44194:	dd004315 	stw	r20,268(sp)
   44198:	dcc04215 	stw	r19,264(sp)
   4419c:	dc804115 	stw	r18,260(sp)
   441a0:	dc404015 	stw	r17,256(sp)
   441a4:	dc003f15 	stw	r16,252(sp)
   441a8:	004b2800 	call	4b280 <_localeconv_r>
   441ac:	10800017 	ldw	r2,0(r2)
   441b0:	1009883a 	mov	r4,r2
   441b4:	d8803415 	stw	r2,208(sp)
   441b8:	00440d40 	call	440d4 <strlen>
   441bc:	d8c02c17 	ldw	r3,176(sp)
   441c0:	d8803815 	stw	r2,224(sp)
   441c4:	1880030b 	ldhu	r2,12(r3)
   441c8:	1080200c 	andi	r2,r2,128
   441cc:	10000226 	beq	r2,zero,441d8 <___svfprintf_internal_r+0x6c>
   441d0:	18800417 	ldw	r2,16(r3)
   441d4:	10067f26 	beq	r2,zero,45bd4 <___svfprintf_internal_r+0x1a68>
   441d8:	dcc03917 	ldw	r19,228(sp)
   441dc:	d8c00404 	addi	r3,sp,16
   441e0:	05400174 	movhi	r21,5
   441e4:	d9001e04 	addi	r4,sp,120
   441e8:	ad574b84 	addi	r21,r21,23854
   441ec:	d8c01e15 	stw	r3,120(sp)
   441f0:	d8002015 	stw	zero,128(sp)
   441f4:	d8001f15 	stw	zero,124(sp)
   441f8:	d8003315 	stw	zero,204(sp)
   441fc:	d8003615 	stw	zero,216(sp)
   44200:	d8003715 	stw	zero,220(sp)
   44204:	1811883a 	mov	r8,r3
   44208:	d8003a15 	stw	zero,232(sp)
   4420c:	d8003b15 	stw	zero,236(sp)
   44210:	d8002f15 	stw	zero,188(sp)
   44214:	d9002815 	stw	r4,160(sp)
   44218:	b8800007 	ldb	r2,0(r23)
   4421c:	10026726 	beq	r2,zero,44bbc <___svfprintf_internal_r+0xa50>
   44220:	00c00944 	movi	r3,37
   44224:	b821883a 	mov	r16,r23
   44228:	10c0021e 	bne	r2,r3,44234 <___svfprintf_internal_r+0xc8>
   4422c:	00001406 	br	44280 <___svfprintf_internal_r+0x114>
   44230:	10c00326 	beq	r2,r3,44240 <___svfprintf_internal_r+0xd4>
   44234:	84000044 	addi	r16,r16,1
   44238:	80800007 	ldb	r2,0(r16)
   4423c:	103ffc1e 	bne	r2,zero,44230 <__alt_data_end+0xfffc5a30>
   44240:	85e3c83a 	sub	r17,r16,r23
   44244:	88000e26 	beq	r17,zero,44280 <___svfprintf_internal_r+0x114>
   44248:	d8c02017 	ldw	r3,128(sp)
   4424c:	d8801f17 	ldw	r2,124(sp)
   44250:	45c00015 	stw	r23,0(r8)
   44254:	1c47883a 	add	r3,r3,r17
   44258:	10800044 	addi	r2,r2,1
   4425c:	d8c02015 	stw	r3,128(sp)
   44260:	44400115 	stw	r17,4(r8)
   44264:	d8801f15 	stw	r2,124(sp)
   44268:	00c001c4 	movi	r3,7
   4426c:	18809716 	blt	r3,r2,444cc <___svfprintf_internal_r+0x360>
   44270:	42000204 	addi	r8,r8,8
   44274:	d9402f17 	ldw	r5,188(sp)
   44278:	2c4b883a 	add	r5,r5,r17
   4427c:	d9402f15 	stw	r5,188(sp)
   44280:	80800007 	ldb	r2,0(r16)
   44284:	10009826 	beq	r2,zero,444e8 <___svfprintf_internal_r+0x37c>
   44288:	84400047 	ldb	r17,1(r16)
   4428c:	00bfffc4 	movi	r2,-1
   44290:	85c00044 	addi	r23,r16,1
   44294:	d8002785 	stb	zero,158(sp)
   44298:	0007883a 	mov	r3,zero
   4429c:	000f883a 	mov	r7,zero
   442a0:	d8802915 	stw	r2,164(sp)
   442a4:	d8003115 	stw	zero,196(sp)
   442a8:	0025883a 	mov	r18,zero
   442ac:	01401604 	movi	r5,88
   442b0:	01800244 	movi	r6,9
   442b4:	02800a84 	movi	r10,42
   442b8:	02401b04 	movi	r9,108
   442bc:	bdc00044 	addi	r23,r23,1
   442c0:	88bff804 	addi	r2,r17,-32
   442c4:	2882f036 	bltu	r5,r2,44e88 <___svfprintf_internal_r+0xd1c>
   442c8:	100490ba 	slli	r2,r2,2
   442cc:	01000134 	movhi	r4,4
   442d0:	2110b804 	addi	r4,r4,17120
   442d4:	1105883a 	add	r2,r2,r4
   442d8:	10800017 	ldw	r2,0(r2)
   442dc:	1000683a 	jmp	r2
   442e0:	00044df0 	cmpltui	zero,zero,4407
   442e4:	00044e88 	cmpgei	zero,zero,4410
   442e8:	00044e88 	cmpgei	zero,zero,4410
   442ec:	00044de4 	muli	zero,zero,4407
   442f0:	00044e88 	cmpgei	zero,zero,4410
   442f4:	00044e88 	cmpgei	zero,zero,4410
   442f8:	00044e88 	cmpgei	zero,zero,4410
   442fc:	00044e88 	cmpgei	zero,zero,4410
   44300:	00044e88 	cmpgei	zero,zero,4410
   44304:	00044e88 	cmpgei	zero,zero,4410
   44308:	00044544 	movi	zero,4373
   4430c:	00044d20 	cmpeqi	zero,zero,4404
   44310:	00044e88 	cmpgei	zero,zero,4410
   44314:	00044454 	movui	zero,4369
   44318:	0004456c 	andhi	zero,zero,4373
   4431c:	00044e88 	cmpgei	zero,zero,4410
   44320:	000445e0 	cmpeqi	zero,zero,4375
   44324:	000445ac 	andhi	zero,zero,4374
   44328:	000445ac 	andhi	zero,zero,4374
   4432c:	000445ac 	andhi	zero,zero,4374
   44330:	000445ac 	andhi	zero,zero,4374
   44334:	000445ac 	andhi	zero,zero,4374
   44338:	000445ac 	andhi	zero,zero,4374
   4433c:	000445ac 	andhi	zero,zero,4374
   44340:	000445ac 	andhi	zero,zero,4374
   44344:	000445ac 	andhi	zero,zero,4374
   44348:	00044e88 	cmpgei	zero,zero,4410
   4434c:	00044e88 	cmpgei	zero,zero,4410
   44350:	00044e88 	cmpgei	zero,zero,4410
   44354:	00044e88 	cmpgei	zero,zero,4410
   44358:	00044e88 	cmpgei	zero,zero,4410
   4435c:	00044e88 	cmpgei	zero,zero,4410
   44360:	00044e88 	cmpgei	zero,zero,4410
   44364:	00044e88 	cmpgei	zero,zero,4410
   44368:	00044e88 	cmpgei	zero,zero,4410
   4436c:	00044e88 	cmpgei	zero,zero,4410
   44370:	00044698 	cmpnei	zero,zero,4378
   44374:	000445ec 	andhi	zero,zero,4375
   44378:	00044e88 	cmpgei	zero,zero,4410
   4437c:	000445ec 	andhi	zero,zero,4375
   44380:	00044e88 	cmpgei	zero,zero,4410
   44384:	00044e88 	cmpgei	zero,zero,4410
   44388:	00044e88 	cmpgei	zero,zero,4410
   4438c:	00044e88 	cmpgei	zero,zero,4410
   44390:	0004468c 	andi	zero,zero,4378
   44394:	00044e88 	cmpgei	zero,zero,4410
   44398:	00044e88 	cmpgei	zero,zero,4410
   4439c:	00044754 	movui	zero,4381
   443a0:	00044e88 	cmpgei	zero,zero,4410
   443a4:	00044e88 	cmpgei	zero,zero,4410
   443a8:	00044e88 	cmpgei	zero,zero,4410
   443ac:	00044e88 	cmpgei	zero,zero,4410
   443b0:	00044e88 	cmpgei	zero,zero,4410
   443b4:	00044bc4 	movi	zero,4399
   443b8:	00044e88 	cmpgei	zero,zero,4410
   443bc:	00044e88 	cmpgei	zero,zero,4410
   443c0:	00044c24 	muli	zero,zero,4400
   443c4:	00044e88 	cmpgei	zero,zero,4410
   443c8:	00044e88 	cmpgei	zero,zero,4410
   443cc:	00044e88 	cmpgei	zero,zero,4410
   443d0:	00044e88 	cmpgei	zero,zero,4410
   443d4:	00044e88 	cmpgei	zero,zero,4410
   443d8:	00044e88 	cmpgei	zero,zero,4410
   443dc:	00044e88 	cmpgei	zero,zero,4410
   443e0:	00044e88 	cmpgei	zero,zero,4410
   443e4:	00044e88 	cmpgei	zero,zero,4410
   443e8:	00044e88 	cmpgei	zero,zero,4410
   443ec:	00044cd4 	movui	zero,4403
   443f0:	00044e10 	cmplti	zero,zero,4408
   443f4:	000445ec 	andhi	zero,zero,4375
   443f8:	000445ec 	andhi	zero,zero,4375
   443fc:	000445ec 	andhi	zero,zero,4375
   44400:	00044e64 	muli	zero,zero,4409
   44404:	00044e10 	cmplti	zero,zero,4408
   44408:	00044e88 	cmpgei	zero,zero,4410
   4440c:	00044e88 	cmpgei	zero,zero,4410
   44410:	00044e20 	cmpeqi	zero,zero,4408
   44414:	00044e88 	cmpgei	zero,zero,4410
   44418:	00044e30 	cmpltui	zero,zero,4408
   4441c:	00044d10 	cmplti	zero,zero,4404
   44420:	00044460 	cmpeqi	zero,zero,4369
   44424:	00044d30 	cmpltui	zero,zero,4404
   44428:	00044e88 	cmpgei	zero,zero,4410
   4442c:	00044d3c 	xorhi	zero,zero,4404
   44430:	00044e88 	cmpgei	zero,zero,4410
   44434:	00044d98 	cmpnei	zero,zero,4406
   44438:	00044e88 	cmpgei	zero,zero,4410
   4443c:	00044e88 	cmpgei	zero,zero,4410
   44440:	00044da8 	cmpgeui	zero,zero,4406
   44444:	d9003117 	ldw	r4,196(sp)
   44448:	d8802d15 	stw	r2,180(sp)
   4444c:	0109c83a 	sub	r4,zero,r4
   44450:	d9003115 	stw	r4,196(sp)
   44454:	94800114 	ori	r18,r18,4
   44458:	bc400007 	ldb	r17,0(r23)
   4445c:	003f9706 	br	442bc <__alt_data_end+0xfffc5abc>
   44460:	00800c04 	movi	r2,48
   44464:	d9002d17 	ldw	r4,180(sp)
   44468:	d9402917 	ldw	r5,164(sp)
   4446c:	d8802705 	stb	r2,156(sp)
   44470:	00801e04 	movi	r2,120
   44474:	d8802745 	stb	r2,157(sp)
   44478:	d8002785 	stb	zero,158(sp)
   4447c:	20c00104 	addi	r3,r4,4
   44480:	25000017 	ldw	r20,0(r4)
   44484:	002d883a 	mov	r22,zero
   44488:	90800094 	ori	r2,r18,2
   4448c:	28028616 	blt	r5,zero,44ea8 <___svfprintf_internal_r+0xd3c>
   44490:	00bfdfc4 	movi	r2,-129
   44494:	90a4703a 	and	r18,r18,r2
   44498:	d8c02d15 	stw	r3,180(sp)
   4449c:	94800094 	ori	r18,r18,2
   444a0:	a002731e 	bne	r20,zero,44e70 <___svfprintf_internal_r+0xd04>
   444a4:	00800174 	movhi	r2,5
   444a8:	10974404 	addi	r2,r2,23824
   444ac:	d8803a15 	stw	r2,232(sp)
   444b0:	04401e04 	movi	r17,120
   444b4:	d8c02917 	ldw	r3,164(sp)
   444b8:	0039883a 	mov	fp,zero
   444bc:	1801d526 	beq	r3,zero,44c14 <___svfprintf_internal_r+0xaa8>
   444c0:	0029883a 	mov	r20,zero
   444c4:	002d883a 	mov	r22,zero
   444c8:	0001f106 	br	44c90 <___svfprintf_internal_r+0xb24>
   444cc:	d9402c17 	ldw	r5,176(sp)
   444d0:	d9801e04 	addi	r6,sp,120
   444d4:	9809883a 	mov	r4,r19
   444d8:	004d9680 	call	4d968 <__ssprint_r>
   444dc:	1000081e 	bne	r2,zero,44500 <___svfprintf_internal_r+0x394>
   444e0:	da000404 	addi	r8,sp,16
   444e4:	003f6306 	br	44274 <__alt_data_end+0xfffc5a74>
   444e8:	d8802017 	ldw	r2,128(sp)
   444ec:	10000426 	beq	r2,zero,44500 <___svfprintf_internal_r+0x394>
   444f0:	d9402c17 	ldw	r5,176(sp)
   444f4:	d9003917 	ldw	r4,228(sp)
   444f8:	d9801e04 	addi	r6,sp,120
   444fc:	004d9680 	call	4d968 <__ssprint_r>
   44500:	d8802c17 	ldw	r2,176(sp)
   44504:	10c0030b 	ldhu	r3,12(r2)
   44508:	d8802f17 	ldw	r2,188(sp)
   4450c:	18c0100c 	andi	r3,r3,64
   44510:	1805f51e 	bne	r3,zero,45ce8 <___svfprintf_internal_r+0x1b7c>
   44514:	dfc04817 	ldw	ra,288(sp)
   44518:	df004717 	ldw	fp,284(sp)
   4451c:	ddc04617 	ldw	r23,280(sp)
   44520:	dd804517 	ldw	r22,276(sp)
   44524:	dd404417 	ldw	r21,272(sp)
   44528:	dd004317 	ldw	r20,268(sp)
   4452c:	dcc04217 	ldw	r19,264(sp)
   44530:	dc804117 	ldw	r18,260(sp)
   44534:	dc404017 	ldw	r17,256(sp)
   44538:	dc003f17 	ldw	r16,252(sp)
   4453c:	dec04904 	addi	sp,sp,292
   44540:	f800283a 	ret
   44544:	d8802d17 	ldw	r2,180(sp)
   44548:	d9002d17 	ldw	r4,180(sp)
   4454c:	10800017 	ldw	r2,0(r2)
   44550:	d8803115 	stw	r2,196(sp)
   44554:	20800104 	addi	r2,r4,4
   44558:	d9003117 	ldw	r4,196(sp)
   4455c:	203fb916 	blt	r4,zero,44444 <__alt_data_end+0xfffc5c44>
   44560:	d8802d15 	stw	r2,180(sp)
   44564:	bc400007 	ldb	r17,0(r23)
   44568:	003f5406 	br	442bc <__alt_data_end+0xfffc5abc>
   4456c:	bc400007 	ldb	r17,0(r23)
   44570:	bac00044 	addi	r11,r23,1
   44574:	8a873926 	beq	r17,r10,4625c <___svfprintf_internal_r+0x20f0>
   44578:	88bff404 	addi	r2,r17,-48
   4457c:	0009883a 	mov	r4,zero
   44580:	30868836 	bltu	r6,r2,45fa4 <___svfprintf_internal_r+0x1e38>
   44584:	5c400007 	ldb	r17,0(r11)
   44588:	210002a4 	muli	r4,r4,10
   4458c:	5dc00044 	addi	r23,r11,1
   44590:	b817883a 	mov	r11,r23
   44594:	2089883a 	add	r4,r4,r2
   44598:	88bff404 	addi	r2,r17,-48
   4459c:	30bff92e 	bgeu	r6,r2,44584 <__alt_data_end+0xfffc5d84>
   445a0:	2005d716 	blt	r4,zero,45d00 <___svfprintf_internal_r+0x1b94>
   445a4:	d9002915 	stw	r4,164(sp)
   445a8:	003f4506 	br	442c0 <__alt_data_end+0xfffc5ac0>
   445ac:	b809883a 	mov	r4,r23
   445b0:	d8003115 	stw	zero,196(sp)
   445b4:	88bff404 	addi	r2,r17,-48
   445b8:	0017883a 	mov	r11,zero
   445bc:	24400007 	ldb	r17,0(r4)
   445c0:	5ac002a4 	muli	r11,r11,10
   445c4:	bdc00044 	addi	r23,r23,1
   445c8:	b809883a 	mov	r4,r23
   445cc:	12d7883a 	add	r11,r2,r11
   445d0:	88bff404 	addi	r2,r17,-48
   445d4:	30bff92e 	bgeu	r6,r2,445bc <__alt_data_end+0xfffc5dbc>
   445d8:	dac03115 	stw	r11,196(sp)
   445dc:	003f3806 	br	442c0 <__alt_data_end+0xfffc5ac0>
   445e0:	94802014 	ori	r18,r18,128
   445e4:	bc400007 	ldb	r17,0(r23)
   445e8:	003f3406 	br	442bc <__alt_data_end+0xfffc5abc>
   445ec:	18c03fcc 	andi	r3,r3,255
   445f0:	1807471e 	bne	r3,zero,46310 <___svfprintf_internal_r+0x21a4>
   445f4:	9080020c 	andi	r2,r18,8
   445f8:	10047d26 	beq	r2,zero,457f0 <___svfprintf_internal_r+0x1684>
   445fc:	d8c02d17 	ldw	r3,180(sp)
   44600:	d9002d17 	ldw	r4,180(sp)
   44604:	d9402d17 	ldw	r5,180(sp)
   44608:	18c00017 	ldw	r3,0(r3)
   4460c:	21000117 	ldw	r4,4(r4)
   44610:	29400204 	addi	r5,r5,8
   44614:	d8c03615 	stw	r3,216(sp)
   44618:	d9003715 	stw	r4,220(sp)
   4461c:	d9402d15 	stw	r5,180(sp)
   44620:	d9003617 	ldw	r4,216(sp)
   44624:	d9403717 	ldw	r5,220(sp)
   44628:	da003e15 	stw	r8,248(sp)
   4462c:	04000044 	movi	r16,1
   44630:	004d6880 	call	4d688 <__fpclassifyd>
   44634:	da003e17 	ldw	r8,248(sp)
   44638:	14044b1e 	bne	r2,r16,45768 <___svfprintf_internal_r+0x15fc>
   4463c:	d9003617 	ldw	r4,216(sp)
   44640:	d9403717 	ldw	r5,220(sp)
   44644:	000d883a 	mov	r6,zero
   44648:	000f883a 	mov	r7,zero
   4464c:	00519040 	call	51904 <__ledf2>
   44650:	da003e17 	ldw	r8,248(sp)
   44654:	1005f316 	blt	r2,zero,45e24 <___svfprintf_internal_r+0x1cb8>
   44658:	df002783 	ldbu	fp,158(sp)
   4465c:	008011c4 	movi	r2,71
   44660:	1445590e 	bge	r2,r17,45bc8 <___svfprintf_internal_r+0x1a5c>
   44664:	04000174 	movhi	r16,5
   44668:	84173c04 	addi	r16,r16,23792
   4466c:	00c000c4 	movi	r3,3
   44670:	00bfdfc4 	movi	r2,-129
   44674:	d8c02a15 	stw	r3,168(sp)
   44678:	90a4703a 	and	r18,r18,r2
   4467c:	d8c02e15 	stw	r3,184(sp)
   44680:	d8002915 	stw	zero,164(sp)
   44684:	d8003215 	stw	zero,200(sp)
   44688:	00006606 	br	44824 <___svfprintf_internal_r+0x6b8>
   4468c:	94800214 	ori	r18,r18,8
   44690:	bc400007 	ldb	r17,0(r23)
   44694:	003f0906 	br	442bc <__alt_data_end+0xfffc5abc>
   44698:	18c03fcc 	andi	r3,r3,255
   4469c:	1807181e 	bne	r3,zero,46300 <___svfprintf_internal_r+0x2194>
   446a0:	94800414 	ori	r18,r18,16
   446a4:	9080080c 	andi	r2,r18,32
   446a8:	10039626 	beq	r2,zero,45504 <___svfprintf_internal_r+0x1398>
   446ac:	d9402d17 	ldw	r5,180(sp)
   446b0:	28800117 	ldw	r2,4(r5)
   446b4:	2d000017 	ldw	r20,0(r5)
   446b8:	29400204 	addi	r5,r5,8
   446bc:	d9402d15 	stw	r5,180(sp)
   446c0:	102d883a 	mov	r22,r2
   446c4:	10039816 	blt	r2,zero,45528 <___svfprintf_internal_r+0x13bc>
   446c8:	d9402917 	ldw	r5,164(sp)
   446cc:	df002783 	ldbu	fp,158(sp)
   446d0:	2803ab16 	blt	r5,zero,45580 <___svfprintf_internal_r+0x1414>
   446d4:	00ffdfc4 	movi	r3,-129
   446d8:	a584b03a 	or	r2,r20,r22
   446dc:	90e4703a 	and	r18,r18,r3
   446e0:	10014a26 	beq	r2,zero,44c0c <___svfprintf_internal_r+0xaa0>
   446e4:	b0034b26 	beq	r22,zero,45414 <___svfprintf_internal_r+0x12a8>
   446e8:	dc402a15 	stw	r17,168(sp)
   446ec:	dc001e04 	addi	r16,sp,120
   446f0:	b023883a 	mov	r17,r22
   446f4:	402d883a 	mov	r22,r8
   446f8:	a009883a 	mov	r4,r20
   446fc:	880b883a 	mov	r5,r17
   44700:	01800284 	movi	r6,10
   44704:	000f883a 	mov	r7,zero
   44708:	00512680 	call	51268 <__umoddi3>
   4470c:	10800c04 	addi	r2,r2,48
   44710:	843fffc4 	addi	r16,r16,-1
   44714:	a009883a 	mov	r4,r20
   44718:	880b883a 	mov	r5,r17
   4471c:	80800005 	stb	r2,0(r16)
   44720:	01800284 	movi	r6,10
   44724:	000f883a 	mov	r7,zero
   44728:	0050cf00 	call	50cf0 <__udivdi3>
   4472c:	1029883a 	mov	r20,r2
   44730:	10c4b03a 	or	r2,r2,r3
   44734:	1823883a 	mov	r17,r3
   44738:	103fef1e 	bne	r2,zero,446f8 <__alt_data_end+0xfffc5ef8>
   4473c:	d8c02817 	ldw	r3,160(sp)
   44740:	dc402a17 	ldw	r17,168(sp)
   44744:	b011883a 	mov	r8,r22
   44748:	1c07c83a 	sub	r3,r3,r16
   4474c:	d8c02e15 	stw	r3,184(sp)
   44750:	00002e06 	br	4480c <___svfprintf_internal_r+0x6a0>
   44754:	18c03fcc 	andi	r3,r3,255
   44758:	1806e71e 	bne	r3,zero,462f8 <___svfprintf_internal_r+0x218c>
   4475c:	94800414 	ori	r18,r18,16
   44760:	9080080c 	andi	r2,r18,32
   44764:	1002d426 	beq	r2,zero,452b8 <___svfprintf_internal_r+0x114c>
   44768:	d9402d17 	ldw	r5,180(sp)
   4476c:	d8c02917 	ldw	r3,164(sp)
   44770:	d8002785 	stb	zero,158(sp)
   44774:	28800204 	addi	r2,r5,8
   44778:	2d000017 	ldw	r20,0(r5)
   4477c:	2d800117 	ldw	r22,4(r5)
   44780:	18041516 	blt	r3,zero,457d8 <___svfprintf_internal_r+0x166c>
   44784:	013fdfc4 	movi	r4,-129
   44788:	a586b03a 	or	r3,r20,r22
   4478c:	d8802d15 	stw	r2,180(sp)
   44790:	9124703a 	and	r18,r18,r4
   44794:	1802d51e 	bne	r3,zero,452ec <___svfprintf_internal_r+0x1180>
   44798:	d9402917 	ldw	r5,164(sp)
   4479c:	0039883a 	mov	fp,zero
   447a0:	2806be26 	beq	r5,zero,4629c <___svfprintf_internal_r+0x2130>
   447a4:	0029883a 	mov	r20,zero
   447a8:	002d883a 	mov	r22,zero
   447ac:	dc001e04 	addi	r16,sp,120
   447b0:	a006d0fa 	srli	r3,r20,3
   447b4:	b008977a 	slli	r4,r22,29
   447b8:	b02cd0fa 	srli	r22,r22,3
   447bc:	a50001cc 	andi	r20,r20,7
   447c0:	a0800c04 	addi	r2,r20,48
   447c4:	843fffc4 	addi	r16,r16,-1
   447c8:	20e8b03a 	or	r20,r4,r3
   447cc:	80800005 	stb	r2,0(r16)
   447d0:	a586b03a 	or	r3,r20,r22
   447d4:	183ff61e 	bne	r3,zero,447b0 <__alt_data_end+0xfffc5fb0>
   447d8:	90c0004c 	andi	r3,r18,1
   447dc:	18013926 	beq	r3,zero,44cc4 <___svfprintf_internal_r+0xb58>
   447e0:	10803fcc 	andi	r2,r2,255
   447e4:	1080201c 	xori	r2,r2,128
   447e8:	10bfe004 	addi	r2,r2,-128
   447ec:	00c00c04 	movi	r3,48
   447f0:	10c13426 	beq	r2,r3,44cc4 <___svfprintf_internal_r+0xb58>
   447f4:	80ffffc5 	stb	r3,-1(r16)
   447f8:	d8c02817 	ldw	r3,160(sp)
   447fc:	80bfffc4 	addi	r2,r16,-1
   44800:	1021883a 	mov	r16,r2
   44804:	1887c83a 	sub	r3,r3,r2
   44808:	d8c02e15 	stw	r3,184(sp)
   4480c:	d8802e17 	ldw	r2,184(sp)
   44810:	d9002917 	ldw	r4,164(sp)
   44814:	1100010e 	bge	r2,r4,4481c <___svfprintf_internal_r+0x6b0>
   44818:	2005883a 	mov	r2,r4
   4481c:	d8802a15 	stw	r2,168(sp)
   44820:	d8003215 	stw	zero,200(sp)
   44824:	e7003fcc 	andi	fp,fp,255
   44828:	e700201c 	xori	fp,fp,128
   4482c:	e73fe004 	addi	fp,fp,-128
   44830:	e0000326 	beq	fp,zero,44840 <___svfprintf_internal_r+0x6d4>
   44834:	d8c02a17 	ldw	r3,168(sp)
   44838:	18c00044 	addi	r3,r3,1
   4483c:	d8c02a15 	stw	r3,168(sp)
   44840:	90c0008c 	andi	r3,r18,2
   44844:	d8c02b15 	stw	r3,172(sp)
   44848:	18000326 	beq	r3,zero,44858 <___svfprintf_internal_r+0x6ec>
   4484c:	d8c02a17 	ldw	r3,168(sp)
   44850:	18c00084 	addi	r3,r3,2
   44854:	d8c02a15 	stw	r3,168(sp)
   44858:	90c0210c 	andi	r3,r18,132
   4485c:	d8c03015 	stw	r3,192(sp)
   44860:	1801a11e 	bne	r3,zero,44ee8 <___svfprintf_internal_r+0xd7c>
   44864:	d9003117 	ldw	r4,196(sp)
   44868:	d8c02a17 	ldw	r3,168(sp)
   4486c:	20e9c83a 	sub	r20,r4,r3
   44870:	05019d0e 	bge	zero,r20,44ee8 <___svfprintf_internal_r+0xd7c>
   44874:	02400404 	movi	r9,16
   44878:	d8c02017 	ldw	r3,128(sp)
   4487c:	d8801f17 	ldw	r2,124(sp)
   44880:	4d051b0e 	bge	r9,r20,45cf0 <___svfprintf_internal_r+0x1b84>
   44884:	01400174 	movhi	r5,5
   44888:	29574f84 	addi	r5,r5,23870
   4488c:	dc403c15 	stw	r17,240(sp)
   44890:	d9403515 	stw	r5,212(sp)
   44894:	a023883a 	mov	r17,r20
   44898:	482d883a 	mov	r22,r9
   4489c:	9029883a 	mov	r20,r18
   448a0:	070001c4 	movi	fp,7
   448a4:	8025883a 	mov	r18,r16
   448a8:	dc002c17 	ldw	r16,176(sp)
   448ac:	00000306 	br	448bc <___svfprintf_internal_r+0x750>
   448b0:	8c7ffc04 	addi	r17,r17,-16
   448b4:	42000204 	addi	r8,r8,8
   448b8:	b440130e 	bge	r22,r17,44908 <___svfprintf_internal_r+0x79c>
   448bc:	01000174 	movhi	r4,5
   448c0:	18c00404 	addi	r3,r3,16
   448c4:	10800044 	addi	r2,r2,1
   448c8:	21174f84 	addi	r4,r4,23870
   448cc:	41000015 	stw	r4,0(r8)
   448d0:	45800115 	stw	r22,4(r8)
   448d4:	d8c02015 	stw	r3,128(sp)
   448d8:	d8801f15 	stw	r2,124(sp)
   448dc:	e0bff40e 	bge	fp,r2,448b0 <__alt_data_end+0xfffc60b0>
   448e0:	d9801e04 	addi	r6,sp,120
   448e4:	800b883a 	mov	r5,r16
   448e8:	9809883a 	mov	r4,r19
   448ec:	004d9680 	call	4d968 <__ssprint_r>
   448f0:	103f031e 	bne	r2,zero,44500 <__alt_data_end+0xfffc5d00>
   448f4:	8c7ffc04 	addi	r17,r17,-16
   448f8:	d8c02017 	ldw	r3,128(sp)
   448fc:	d8801f17 	ldw	r2,124(sp)
   44900:	da000404 	addi	r8,sp,16
   44904:	b47fed16 	blt	r22,r17,448bc <__alt_data_end+0xfffc60bc>
   44908:	9021883a 	mov	r16,r18
   4490c:	a025883a 	mov	r18,r20
   44910:	8829883a 	mov	r20,r17
   44914:	dc403c17 	ldw	r17,240(sp)
   44918:	d9403517 	ldw	r5,212(sp)
   4491c:	a0c7883a 	add	r3,r20,r3
   44920:	10800044 	addi	r2,r2,1
   44924:	41400015 	stw	r5,0(r8)
   44928:	45000115 	stw	r20,4(r8)
   4492c:	d8c02015 	stw	r3,128(sp)
   44930:	d8801f15 	stw	r2,124(sp)
   44934:	010001c4 	movi	r4,7
   44938:	20829f16 	blt	r4,r2,453b8 <___svfprintf_internal_r+0x124c>
   4493c:	df002787 	ldb	fp,158(sp)
   44940:	42000204 	addi	r8,r8,8
   44944:	e0000c26 	beq	fp,zero,44978 <___svfprintf_internal_r+0x80c>
   44948:	d8801f17 	ldw	r2,124(sp)
   4494c:	d9002784 	addi	r4,sp,158
   44950:	18c00044 	addi	r3,r3,1
   44954:	10800044 	addi	r2,r2,1
   44958:	41000015 	stw	r4,0(r8)
   4495c:	01000044 	movi	r4,1
   44960:	41000115 	stw	r4,4(r8)
   44964:	d8c02015 	stw	r3,128(sp)
   44968:	d8801f15 	stw	r2,124(sp)
   4496c:	010001c4 	movi	r4,7
   44970:	20823816 	blt	r4,r2,45254 <___svfprintf_internal_r+0x10e8>
   44974:	42000204 	addi	r8,r8,8
   44978:	d8802b17 	ldw	r2,172(sp)
   4497c:	10000c26 	beq	r2,zero,449b0 <___svfprintf_internal_r+0x844>
   44980:	d8801f17 	ldw	r2,124(sp)
   44984:	d9002704 	addi	r4,sp,156
   44988:	18c00084 	addi	r3,r3,2
   4498c:	10800044 	addi	r2,r2,1
   44990:	41000015 	stw	r4,0(r8)
   44994:	01000084 	movi	r4,2
   44998:	41000115 	stw	r4,4(r8)
   4499c:	d8c02015 	stw	r3,128(sp)
   449a0:	d8801f15 	stw	r2,124(sp)
   449a4:	010001c4 	movi	r4,7
   449a8:	20823216 	blt	r4,r2,45274 <___svfprintf_internal_r+0x1108>
   449ac:	42000204 	addi	r8,r8,8
   449b0:	d9003017 	ldw	r4,192(sp)
   449b4:	00802004 	movi	r2,128
   449b8:	20819726 	beq	r4,r2,45018 <___svfprintf_internal_r+0xeac>
   449bc:	d9402917 	ldw	r5,164(sp)
   449c0:	d8802e17 	ldw	r2,184(sp)
   449c4:	28adc83a 	sub	r22,r5,r2
   449c8:	05802f0e 	bge	zero,r22,44a88 <___svfprintf_internal_r+0x91c>
   449cc:	07000404 	movi	fp,16
   449d0:	d8801f17 	ldw	r2,124(sp)
   449d4:	e583c00e 	bge	fp,r22,458d8 <___svfprintf_internal_r+0x176c>
   449d8:	01400174 	movhi	r5,5
   449dc:	29574b84 	addi	r5,r5,23854
   449e0:	dc402915 	stw	r17,164(sp)
   449e4:	d9402b15 	stw	r5,172(sp)
   449e8:	b023883a 	mov	r17,r22
   449ec:	050001c4 	movi	r20,7
   449f0:	902d883a 	mov	r22,r18
   449f4:	8025883a 	mov	r18,r16
   449f8:	dc002c17 	ldw	r16,176(sp)
   449fc:	00000306 	br	44a0c <___svfprintf_internal_r+0x8a0>
   44a00:	8c7ffc04 	addi	r17,r17,-16
   44a04:	42000204 	addi	r8,r8,8
   44a08:	e440110e 	bge	fp,r17,44a50 <___svfprintf_internal_r+0x8e4>
   44a0c:	18c00404 	addi	r3,r3,16
   44a10:	10800044 	addi	r2,r2,1
   44a14:	45400015 	stw	r21,0(r8)
   44a18:	47000115 	stw	fp,4(r8)
   44a1c:	d8c02015 	stw	r3,128(sp)
   44a20:	d8801f15 	stw	r2,124(sp)
   44a24:	a0bff60e 	bge	r20,r2,44a00 <__alt_data_end+0xfffc6200>
   44a28:	d9801e04 	addi	r6,sp,120
   44a2c:	800b883a 	mov	r5,r16
   44a30:	9809883a 	mov	r4,r19
   44a34:	004d9680 	call	4d968 <__ssprint_r>
   44a38:	103eb11e 	bne	r2,zero,44500 <__alt_data_end+0xfffc5d00>
   44a3c:	8c7ffc04 	addi	r17,r17,-16
   44a40:	d8c02017 	ldw	r3,128(sp)
   44a44:	d8801f17 	ldw	r2,124(sp)
   44a48:	da000404 	addi	r8,sp,16
   44a4c:	e47fef16 	blt	fp,r17,44a0c <__alt_data_end+0xfffc620c>
   44a50:	9021883a 	mov	r16,r18
   44a54:	b025883a 	mov	r18,r22
   44a58:	882d883a 	mov	r22,r17
   44a5c:	dc402917 	ldw	r17,164(sp)
   44a60:	d9002b17 	ldw	r4,172(sp)
   44a64:	1d87883a 	add	r3,r3,r22
   44a68:	10800044 	addi	r2,r2,1
   44a6c:	41000015 	stw	r4,0(r8)
   44a70:	45800115 	stw	r22,4(r8)
   44a74:	d8c02015 	stw	r3,128(sp)
   44a78:	d8801f15 	stw	r2,124(sp)
   44a7c:	010001c4 	movi	r4,7
   44a80:	2081ec16 	blt	r4,r2,45234 <___svfprintf_internal_r+0x10c8>
   44a84:	42000204 	addi	r8,r8,8
   44a88:	9080400c 	andi	r2,r18,256
   44a8c:	1001181e 	bne	r2,zero,44ef0 <___svfprintf_internal_r+0xd84>
   44a90:	d9402e17 	ldw	r5,184(sp)
   44a94:	d8801f17 	ldw	r2,124(sp)
   44a98:	44000015 	stw	r16,0(r8)
   44a9c:	1947883a 	add	r3,r3,r5
   44aa0:	10800044 	addi	r2,r2,1
   44aa4:	41400115 	stw	r5,4(r8)
   44aa8:	d8c02015 	stw	r3,128(sp)
   44aac:	d8801f15 	stw	r2,124(sp)
   44ab0:	010001c4 	movi	r4,7
   44ab4:	2081d116 	blt	r4,r2,451fc <___svfprintf_internal_r+0x1090>
   44ab8:	42000204 	addi	r8,r8,8
   44abc:	9480010c 	andi	r18,r18,4
   44ac0:	90003226 	beq	r18,zero,44b8c <___svfprintf_internal_r+0xa20>
   44ac4:	d9403117 	ldw	r5,196(sp)
   44ac8:	d8802a17 	ldw	r2,168(sp)
   44acc:	28a1c83a 	sub	r16,r5,r2
   44ad0:	04002e0e 	bge	zero,r16,44b8c <___svfprintf_internal_r+0xa20>
   44ad4:	04400404 	movi	r17,16
   44ad8:	d8801f17 	ldw	r2,124(sp)
   44adc:	8c04b90e 	bge	r17,r16,45dc4 <___svfprintf_internal_r+0x1c58>
   44ae0:	01400174 	movhi	r5,5
   44ae4:	29574f84 	addi	r5,r5,23870
   44ae8:	d9403515 	stw	r5,212(sp)
   44aec:	048001c4 	movi	r18,7
   44af0:	dd002c17 	ldw	r20,176(sp)
   44af4:	00000306 	br	44b04 <___svfprintf_internal_r+0x998>
   44af8:	843ffc04 	addi	r16,r16,-16
   44afc:	42000204 	addi	r8,r8,8
   44b00:	8c00130e 	bge	r17,r16,44b50 <___svfprintf_internal_r+0x9e4>
   44b04:	01000174 	movhi	r4,5
   44b08:	18c00404 	addi	r3,r3,16
   44b0c:	10800044 	addi	r2,r2,1
   44b10:	21174f84 	addi	r4,r4,23870
   44b14:	41000015 	stw	r4,0(r8)
   44b18:	44400115 	stw	r17,4(r8)
   44b1c:	d8c02015 	stw	r3,128(sp)
   44b20:	d8801f15 	stw	r2,124(sp)
   44b24:	90bff40e 	bge	r18,r2,44af8 <__alt_data_end+0xfffc62f8>
   44b28:	d9801e04 	addi	r6,sp,120
   44b2c:	a00b883a 	mov	r5,r20
   44b30:	9809883a 	mov	r4,r19
   44b34:	004d9680 	call	4d968 <__ssprint_r>
   44b38:	103e711e 	bne	r2,zero,44500 <__alt_data_end+0xfffc5d00>
   44b3c:	843ffc04 	addi	r16,r16,-16
   44b40:	d8c02017 	ldw	r3,128(sp)
   44b44:	d8801f17 	ldw	r2,124(sp)
   44b48:	da000404 	addi	r8,sp,16
   44b4c:	8c3fed16 	blt	r17,r16,44b04 <__alt_data_end+0xfffc6304>
   44b50:	d9403517 	ldw	r5,212(sp)
   44b54:	1c07883a 	add	r3,r3,r16
   44b58:	10800044 	addi	r2,r2,1
   44b5c:	41400015 	stw	r5,0(r8)
   44b60:	44000115 	stw	r16,4(r8)
   44b64:	d8c02015 	stw	r3,128(sp)
   44b68:	d8801f15 	stw	r2,124(sp)
   44b6c:	010001c4 	movi	r4,7
   44b70:	2080060e 	bge	r4,r2,44b8c <___svfprintf_internal_r+0xa20>
   44b74:	d9402c17 	ldw	r5,176(sp)
   44b78:	d9801e04 	addi	r6,sp,120
   44b7c:	9809883a 	mov	r4,r19
   44b80:	004d9680 	call	4d968 <__ssprint_r>
   44b84:	103e5e1e 	bne	r2,zero,44500 <__alt_data_end+0xfffc5d00>
   44b88:	d8c02017 	ldw	r3,128(sp)
   44b8c:	d8803117 	ldw	r2,196(sp)
   44b90:	d9002a17 	ldw	r4,168(sp)
   44b94:	1100010e 	bge	r2,r4,44b9c <___svfprintf_internal_r+0xa30>
   44b98:	2005883a 	mov	r2,r4
   44b9c:	d9402f17 	ldw	r5,188(sp)
   44ba0:	288b883a 	add	r5,r5,r2
   44ba4:	d9402f15 	stw	r5,188(sp)
   44ba8:	18019c1e 	bne	r3,zero,4521c <___svfprintf_internal_r+0x10b0>
   44bac:	b8800007 	ldb	r2,0(r23)
   44bb0:	d8001f15 	stw	zero,124(sp)
   44bb4:	da000404 	addi	r8,sp,16
   44bb8:	103d991e 	bne	r2,zero,44220 <__alt_data_end+0xfffc5a20>
   44bbc:	b821883a 	mov	r16,r23
   44bc0:	003daf06 	br	44280 <__alt_data_end+0xfffc5a80>
   44bc4:	18c03fcc 	andi	r3,r3,255
   44bc8:	1805c71e 	bne	r3,zero,462e8 <___svfprintf_internal_r+0x217c>
   44bcc:	94800414 	ori	r18,r18,16
   44bd0:	9080080c 	andi	r2,r18,32
   44bd4:	10020126 	beq	r2,zero,453dc <___svfprintf_internal_r+0x1270>
   44bd8:	d8802d17 	ldw	r2,180(sp)
   44bdc:	d9002917 	ldw	r4,164(sp)
   44be0:	d8002785 	stb	zero,158(sp)
   44be4:	10c00204 	addi	r3,r2,8
   44be8:	15000017 	ldw	r20,0(r2)
   44bec:	15800117 	ldw	r22,4(r2)
   44bf0:	20038e16 	blt	r4,zero,45a2c <___svfprintf_internal_r+0x18c0>
   44bf4:	013fdfc4 	movi	r4,-129
   44bf8:	a584b03a 	or	r2,r20,r22
   44bfc:	d8c02d15 	stw	r3,180(sp)
   44c00:	9124703a 	and	r18,r18,r4
   44c04:	0039883a 	mov	fp,zero
   44c08:	103eb61e 	bne	r2,zero,446e4 <__alt_data_end+0xfffc5ee4>
   44c0c:	d8802917 	ldw	r2,164(sp)
   44c10:	1002c81e 	bne	r2,zero,45734 <___svfprintf_internal_r+0x15c8>
   44c14:	d8002915 	stw	zero,164(sp)
   44c18:	d8002e15 	stw	zero,184(sp)
   44c1c:	dc001e04 	addi	r16,sp,120
   44c20:	003efa06 	br	4480c <__alt_data_end+0xfffc600c>
   44c24:	18c03fcc 	andi	r3,r3,255
   44c28:	1805ad1e 	bne	r3,zero,462e0 <___svfprintf_internal_r+0x2174>
   44c2c:	01400174 	movhi	r5,5
   44c30:	29573f04 	addi	r5,r5,23804
   44c34:	d9403a15 	stw	r5,232(sp)
   44c38:	9080080c 	andi	r2,r18,32
   44c3c:	10006126 	beq	r2,zero,44dc4 <___svfprintf_internal_r+0xc58>
   44c40:	d8802d17 	ldw	r2,180(sp)
   44c44:	15000017 	ldw	r20,0(r2)
   44c48:	15800117 	ldw	r22,4(r2)
   44c4c:	10800204 	addi	r2,r2,8
   44c50:	d8802d15 	stw	r2,180(sp)
   44c54:	9080004c 	andi	r2,r18,1
   44c58:	10018e26 	beq	r2,zero,45294 <___svfprintf_internal_r+0x1128>
   44c5c:	a584b03a 	or	r2,r20,r22
   44c60:	10030926 	beq	r2,zero,45888 <___svfprintf_internal_r+0x171c>
   44c64:	d8c02917 	ldw	r3,164(sp)
   44c68:	00800c04 	movi	r2,48
   44c6c:	d8802705 	stb	r2,156(sp)
   44c70:	dc402745 	stb	r17,157(sp)
   44c74:	d8002785 	stb	zero,158(sp)
   44c78:	90800094 	ori	r2,r18,2
   44c7c:	18048716 	blt	r3,zero,45e9c <___svfprintf_internal_r+0x1d30>
   44c80:	00bfdfc4 	movi	r2,-129
   44c84:	90a4703a 	and	r18,r18,r2
   44c88:	94800094 	ori	r18,r18,2
   44c8c:	0039883a 	mov	fp,zero
   44c90:	d9003a17 	ldw	r4,232(sp)
   44c94:	dc001e04 	addi	r16,sp,120
   44c98:	a08003cc 	andi	r2,r20,15
   44c9c:	b006973a 	slli	r3,r22,28
   44ca0:	2085883a 	add	r2,r4,r2
   44ca4:	a028d13a 	srli	r20,r20,4
   44ca8:	10800003 	ldbu	r2,0(r2)
   44cac:	b02cd13a 	srli	r22,r22,4
   44cb0:	843fffc4 	addi	r16,r16,-1
   44cb4:	1d28b03a 	or	r20,r3,r20
   44cb8:	80800005 	stb	r2,0(r16)
   44cbc:	a584b03a 	or	r2,r20,r22
   44cc0:	103ff51e 	bne	r2,zero,44c98 <__alt_data_end+0xfffc6498>
   44cc4:	d8c02817 	ldw	r3,160(sp)
   44cc8:	1c07c83a 	sub	r3,r3,r16
   44ccc:	d8c02e15 	stw	r3,184(sp)
   44cd0:	003ece06 	br	4480c <__alt_data_end+0xfffc600c>
   44cd4:	d8c02d17 	ldw	r3,180(sp)
   44cd8:	d9002d17 	ldw	r4,180(sp)
   44cdc:	d8002785 	stb	zero,158(sp)
   44ce0:	18800017 	ldw	r2,0(r3)
   44ce4:	21000104 	addi	r4,r4,4
   44ce8:	00c00044 	movi	r3,1
   44cec:	d8c02a15 	stw	r3,168(sp)
   44cf0:	d8801405 	stb	r2,80(sp)
   44cf4:	d9002d15 	stw	r4,180(sp)
   44cf8:	d8c02e15 	stw	r3,184(sp)
   44cfc:	d8002915 	stw	zero,164(sp)
   44d00:	d8003215 	stw	zero,200(sp)
   44d04:	dc001404 	addi	r16,sp,80
   44d08:	0039883a 	mov	fp,zero
   44d0c:	003ecc06 	br	44840 <__alt_data_end+0xfffc6040>
   44d10:	18c03fcc 	andi	r3,r3,255
   44d14:	183e9226 	beq	r3,zero,44760 <__alt_data_end+0xfffc5f60>
   44d18:	d9c02785 	stb	r7,158(sp)
   44d1c:	003e9006 	br	44760 <__alt_data_end+0xfffc5f60>
   44d20:	00c00044 	movi	r3,1
   44d24:	01c00ac4 	movi	r7,43
   44d28:	bc400007 	ldb	r17,0(r23)
   44d2c:	003d6306 	br	442bc <__alt_data_end+0xfffc5abc>
   44d30:	94800814 	ori	r18,r18,32
   44d34:	bc400007 	ldb	r17,0(r23)
   44d38:	003d6006 	br	442bc <__alt_data_end+0xfffc5abc>
   44d3c:	d8c02d17 	ldw	r3,180(sp)
   44d40:	d8002785 	stb	zero,158(sp)
   44d44:	1c000017 	ldw	r16,0(r3)
   44d48:	1d000104 	addi	r20,r3,4
   44d4c:	80040f26 	beq	r16,zero,45d8c <___svfprintf_internal_r+0x1c20>
   44d50:	d9002917 	ldw	r4,164(sp)
   44d54:	2003dc16 	blt	r4,zero,45cc8 <___svfprintf_internal_r+0x1b5c>
   44d58:	200d883a 	mov	r6,r4
   44d5c:	000b883a 	mov	r5,zero
   44d60:	8009883a 	mov	r4,r16
   44d64:	da003e15 	stw	r8,248(sp)
   44d68:	004bc780 	call	4bc78 <memchr>
   44d6c:	da003e17 	ldw	r8,248(sp)
